
./VertuxOS/KERNEL.gdb:     file format elf32-i386


Disassembly of section .text:

01000000 <Start>:
 1000000:	a3 40 5d 00 01       	mov    %eax,0x1005d40
 1000005:	52                   	push   %edx
 1000006:	e8 73 45 00 00       	call   100457e <kernel_main>
 100000b:	f4                   	hlt    
 100000c:	eb fe                	jmp    100000c <Start+0xc>

0100000e <WaitTick>:
 100000e:	55                   	push   %ebp
 100000f:	89 e5                	mov    %esp,%ebp
 1000011:	eb 05                	jmp    1000018 <WaitTick+0xa>
 1000013:	90                   	nop
 1000014:	83 6d 08 01          	subl   $0x1,0x8(%ebp)
 1000018:	83 7d 08 00          	cmpl   $0x0,0x8(%ebp)
 100001c:	75 f5                	jne    1000013 <WaitTick+0x5>
 100001e:	5d                   	pop    %ebp
 100001f:	c3                   	ret    

01000020 <idt_closed>:
 1000020:	55                   	push   %ebp
 1000021:	89 e5                	mov    %esp,%ebp
 1000023:	fa                   	cli    
 1000024:	5d                   	pop    %ebp
 1000025:	c3                   	ret    

01000026 <idt_open>:
 1000026:	55                   	push   %ebp
 1000027:	89 e5                	mov    %esp,%ebp
 1000029:	fb                   	sti    
 100002a:	5d                   	pop    %ebp
 100002b:	c3                   	ret    

0100002c <InEax>:
 100002c:	55                   	push   %ebp
 100002d:	89 e5                	mov    %esp,%ebp
 100002f:	83 ec 10             	sub    $0x10,%esp
 1000032:	c7 45 fc 00 00 00 00 	movl   $0x0,-0x4(%ebp)
 1000039:	8b 45 08             	mov    0x8(%ebp),%eax
 100003c:	89 c2                	mov    %eax,%edx
 100003e:	ed                   	in     (%dx),%eax
 100003f:	89 45 fc             	mov    %eax,-0x4(%ebp)
 1000042:	8b 45 fc             	mov    -0x4(%ebp),%eax
 1000045:	c9                   	leave  
 1000046:	c3                   	ret    

01000047 <InAx>:
 1000047:	55                   	push   %ebp
 1000048:	89 e5                	mov    %esp,%ebp
 100004a:	83 ec 10             	sub    $0x10,%esp
 100004d:	c7 45 fc 00 00 00 00 	movl   $0x0,-0x4(%ebp)
 1000054:	8b 45 08             	mov    0x8(%ebp),%eax
 1000057:	89 c2                	mov    %eax,%edx
 1000059:	66 ed                	in     (%dx),%ax
 100005b:	89 45 fc             	mov    %eax,-0x4(%ebp)
 100005e:	8b 45 fc             	mov    -0x4(%ebp),%eax
 1000061:	c9                   	leave  
 1000062:	c3                   	ret    

01000063 <InAl>:
 1000063:	55                   	push   %ebp
 1000064:	89 e5                	mov    %esp,%ebp
 1000066:	83 ec 10             	sub    $0x10,%esp
 1000069:	c6 45 ff 00          	movb   $0x0,-0x1(%ebp)
 100006d:	8b 45 08             	mov    0x8(%ebp),%eax
 1000070:	89 c2                	mov    %eax,%edx
 1000072:	ec                   	in     (%dx),%al
 1000073:	88 45 ff             	mov    %al,-0x1(%ebp)
 1000076:	0f b6 45 ff          	movzbl -0x1(%ebp),%eax
 100007a:	c9                   	leave  
 100007b:	c3                   	ret    

0100007c <OutEax>:
 100007c:	55                   	push   %ebp
 100007d:	89 e5                	mov    %esp,%ebp
 100007f:	8b 55 08             	mov    0x8(%ebp),%edx
 1000082:	8b 45 0c             	mov    0xc(%ebp),%eax
 1000085:	ef                   	out    %eax,(%dx)
 1000086:	5d                   	pop    %ebp
 1000087:	c3                   	ret    

01000088 <OutAx>:
 1000088:	55                   	push   %ebp
 1000089:	89 e5                	mov    %esp,%ebp
 100008b:	83 ec 04             	sub    $0x4,%esp
 100008e:	8b 45 0c             	mov    0xc(%ebp),%eax
 1000091:	66 89 45 fc          	mov    %ax,-0x4(%ebp)
 1000095:	8b 55 08             	mov    0x8(%ebp),%edx
 1000098:	0f b7 45 fc          	movzwl -0x4(%ebp),%eax
 100009c:	66 ef                	out    %ax,(%dx)
 100009e:	c9                   	leave  
 100009f:	c3                   	ret    

010000a0 <OutAl>:
 10000a0:	55                   	push   %ebp
 10000a1:	89 e5                	mov    %esp,%ebp
 10000a3:	83 ec 04             	sub    $0x4,%esp
 10000a6:	8b 45 0c             	mov    0xc(%ebp),%eax
 10000a9:	88 45 fc             	mov    %al,-0x4(%ebp)
 10000ac:	8b 55 08             	mov    0x8(%ebp),%edx
 10000af:	0f b6 45 fc          	movzbl -0x4(%ebp),%eax
 10000b3:	ee                   	out    %al,(%dx)
 10000b4:	c9                   	leave  
 10000b5:	c3                   	ret    

010000b6 <showCopyrating>:
 10000b6:	55                   	push   %ebp
 10000b7:	89 e5                	mov    %esp,%ebp
 10000b9:	83 ec 08             	sub    $0x8,%esp
 10000bc:	e8 1c 04 00 00       	call   10004dd <clrscr>
 10000c1:	83 ec 0c             	sub    $0xc,%esp
 10000c4:	68 4c 5d 00 01       	push   $0x1005d4c
 10000c9:	e8 d1 01 00 00       	call   100029f <printf>
 10000ce:	83 c4 10             	add    $0x10,%esp
 10000d1:	83 ec 0c             	sub    $0xc,%esp
 10000d4:	68 8f 5d 00 01       	push   $0x1005d8f
 10000d9:	e8 c1 01 00 00       	call   100029f <printf>
 10000de:	83 c4 10             	add    $0x10,%esp
 10000e1:	83 ec 0c             	sub    $0xc,%esp
 10000e4:	68 8f 5d 00 01       	push   $0x1005d8f
 10000e9:	e8 b1 01 00 00       	call   100029f <printf>
 10000ee:	83 c4 10             	add    $0x10,%esp
 10000f1:	83 ec 0c             	sub    $0xc,%esp
 10000f4:	68 8f 5d 00 01       	push   $0x1005d8f
 10000f9:	e8 a1 01 00 00       	call   100029f <printf>
 10000fe:	83 c4 10             	add    $0x10,%esp
 1000101:	83 ec 0c             	sub    $0xc,%esp
 1000104:	68 8f 5d 00 01       	push   $0x1005d8f
 1000109:	e8 91 01 00 00       	call   100029f <printf>
 100010e:	83 c4 10             	add    $0x10,%esp
 1000111:	83 ec 0c             	sub    $0xc,%esp
 1000114:	68 8f 5d 00 01       	push   $0x1005d8f
 1000119:	e8 81 01 00 00       	call   100029f <printf>
 100011e:	83 c4 10             	add    $0x10,%esp
 1000121:	83 ec 0c             	sub    $0xc,%esp
 1000124:	68 8f 5d 00 01       	push   $0x1005d8f
 1000129:	e8 71 01 00 00       	call   100029f <printf>
 100012e:	83 c4 10             	add    $0x10,%esp
 1000131:	83 ec 0c             	sub    $0xc,%esp
 1000134:	68 8f 5d 00 01       	push   $0x1005d8f
 1000139:	e8 61 01 00 00       	call   100029f <printf>
 100013e:	83 c4 10             	add    $0x10,%esp
 1000141:	83 ec 0c             	sub    $0xc,%esp
 1000144:	68 8f 5d 00 01       	push   $0x1005d8f
 1000149:	e8 51 01 00 00       	call   100029f <printf>
 100014e:	83 c4 10             	add    $0x10,%esp
 1000151:	83 ec 0c             	sub    $0xc,%esp
 1000154:	68 8f 5d 00 01       	push   $0x1005d8f
 1000159:	e8 41 01 00 00       	call   100029f <printf>
 100015e:	83 c4 10             	add    $0x10,%esp
 1000161:	83 ec 0c             	sub    $0xc,%esp
 1000164:	68 8f 5d 00 01       	push   $0x1005d8f
 1000169:	e8 31 01 00 00       	call   100029f <printf>
 100016e:	83 c4 10             	add    $0x10,%esp
 1000171:	83 ec 0c             	sub    $0xc,%esp
 1000174:	68 8f 5d 00 01       	push   $0x1005d8f
 1000179:	e8 21 01 00 00       	call   100029f <printf>
 100017e:	83 c4 10             	add    $0x10,%esp
 1000181:	83 ec 0c             	sub    $0xc,%esp
 1000184:	68 8f 5d 00 01       	push   $0x1005d8f
 1000189:	e8 11 01 00 00       	call   100029f <printf>
 100018e:	83 c4 10             	add    $0x10,%esp
 1000191:	83 ec 0c             	sub    $0xc,%esp
 1000194:	68 8f 5d 00 01       	push   $0x1005d8f
 1000199:	e8 01 01 00 00       	call   100029f <printf>
 100019e:	83 c4 10             	add    $0x10,%esp
 10001a1:	83 ec 0c             	sub    $0xc,%esp
 10001a4:	68 8f 5d 00 01       	push   $0x1005d8f
 10001a9:	e8 f1 00 00 00       	call   100029f <printf>
 10001ae:	83 c4 10             	add    $0x10,%esp
 10001b1:	83 ec 0c             	sub    $0xc,%esp
 10001b4:	68 9c 5d 00 01       	push   $0x1005d9c
 10001b9:	e8 e1 00 00 00       	call   100029f <printf>
 10001be:	83 c4 10             	add    $0x10,%esp
 10001c1:	83 ec 0c             	sub    $0xc,%esp
 10001c4:	68 dc 5d 00 01       	push   $0x1005ddc
 10001c9:	e8 d1 00 00 00       	call   100029f <printf>
 10001ce:	83 c4 10             	add    $0x10,%esp
 10001d1:	c9                   	leave  
 10001d2:	c3                   	ret    

010001d3 <HexInAsciiSz>:
 10001d3:	55                   	push   %ebp
 10001d4:	89 e5                	mov    %esp,%ebp
 10001d6:	53                   	push   %ebx
 10001d7:	83 ec 24             	sub    $0x24,%esp
 10001da:	8b 45 0c             	mov    0xc(%ebp),%eax
 10001dd:	88 45 d8             	mov    %al,-0x28(%ebp)
 10001e0:	c6 45 dc 30          	movb   $0x30,-0x24(%ebp)
 10001e4:	c6 45 dd 31          	movb   $0x31,-0x23(%ebp)
 10001e8:	c6 45 de 32          	movb   $0x32,-0x22(%ebp)
 10001ec:	c6 45 df 33          	movb   $0x33,-0x21(%ebp)
 10001f0:	c6 45 e0 34          	movb   $0x34,-0x20(%ebp)
 10001f4:	c6 45 e1 35          	movb   $0x35,-0x1f(%ebp)
 10001f8:	c6 45 e2 36          	movb   $0x36,-0x1e(%ebp)
 10001fc:	c6 45 e3 37          	movb   $0x37,-0x1d(%ebp)
 1000200:	c6 45 e4 38          	movb   $0x38,-0x1c(%ebp)
 1000204:	c6 45 e5 39          	movb   $0x39,-0x1b(%ebp)
 1000208:	c6 45 e6 61          	movb   $0x61,-0x1a(%ebp)
 100020c:	c6 45 e7 62          	movb   $0x62,-0x19(%ebp)
 1000210:	c6 45 e8 63          	movb   $0x63,-0x18(%ebp)
 1000214:	c6 45 e9 64          	movb   $0x64,-0x17(%ebp)
 1000218:	c6 45 ea 65          	movb   $0x65,-0x16(%ebp)
 100021c:	c6 45 eb 66          	movb   $0x66,-0x15(%ebp)
 1000220:	c7 45 f0 00 80 0b 00 	movl   $0xb8000,-0x10(%ebp)
 1000227:	a1 00 80 00 01       	mov    0x1008000,%eax
 100022c:	89 45 f8             	mov    %eax,-0x8(%ebp)
 100022f:	a1 04 80 00 01       	mov    0x1008004,%eax
 1000234:	89 45 ec             	mov    %eax,-0x14(%ebp)
 1000237:	c6 45 f7 fc          	movb   $0xfc,-0x9(%ebp)
 100023b:	eb 40                	jmp    100027d <HexInAsciiSz+0xaa>
 100023d:	8b 55 f0             	mov    -0x10(%ebp),%edx
 1000240:	8b 45 f8             	mov    -0x8(%ebp),%eax
 1000243:	01 c2                	add    %eax,%edx
 1000245:	0f be 45 f7          	movsbl -0x9(%ebp),%eax
 1000249:	8b 5d 08             	mov    0x8(%ebp),%ebx
 100024c:	89 c1                	mov    %eax,%ecx
 100024e:	d3 fb                	sar    %cl,%ebx
 1000250:	89 d8                	mov    %ebx,%eax
 1000252:	83 e0 0f             	and    $0xf,%eax
 1000255:	0f b6 44 05 dc       	movzbl -0x24(%ebp,%eax,1),%eax
 100025a:	88 02                	mov    %al,(%edx)
 100025c:	8b 45 f8             	mov    -0x8(%ebp),%eax
 100025f:	8d 50 01             	lea    0x1(%eax),%edx
 1000262:	8b 45 f0             	mov    -0x10(%ebp),%eax
 1000265:	01 c2                	add    %eax,%edx
 1000267:	8b 45 ec             	mov    -0x14(%ebp),%eax
 100026a:	0f b6 00             	movzbl (%eax),%eax
 100026d:	88 02                	mov    %al,(%edx)
 100026f:	83 45 f8 02          	addl   $0x2,-0x8(%ebp)
 1000273:	0f b6 45 f7          	movzbl -0x9(%ebp),%eax
 1000277:	83 e8 04             	sub    $0x4,%eax
 100027a:	88 45 f7             	mov    %al,-0x9(%ebp)
 100027d:	0f b6 45 d8          	movzbl -0x28(%ebp),%eax
 1000281:	01 c0                	add    %eax,%eax
 1000283:	89 c2                	mov    %eax,%edx
 1000285:	a1 00 80 00 01       	mov    0x1008000,%eax
 100028a:	01 d0                	add    %edx,%eax
 100028c:	3b 45 f8             	cmp    -0x8(%ebp),%eax
 100028f:	75 ac                	jne    100023d <HexInAsciiSz+0x6a>
 1000291:	8b 45 f8             	mov    -0x8(%ebp),%eax
 1000294:	a3 00 80 00 01       	mov    %eax,0x1008000
 1000299:	83 c4 24             	add    $0x24,%esp
 100029c:	5b                   	pop    %ebx
 100029d:	5d                   	pop    %ebp
 100029e:	c3                   	ret    

0100029f <printf>:
 100029f:	55                   	push   %ebp
 10002a0:	89 e5                	mov    %esp,%ebp
 10002a2:	83 ec 28             	sub    $0x28,%esp
 10002a5:	c7 45 e4 00 80 0b 00 	movl   $0xb8000,-0x1c(%ebp)
 10002ac:	a1 00 80 00 01       	mov    0x1008000,%eax
 10002b1:	89 45 f4             	mov    %eax,-0xc(%ebp)
 10002b4:	a1 04 80 00 01       	mov    0x1008004,%eax
 10002b9:	89 45 e0             	mov    %eax,-0x20(%ebp)
 10002bc:	c7 45 f0 02 5e 00 01 	movl   $0x1005e02,-0x10(%ebp)
 10002c3:	83 45 08 24          	addl   $0x24,0x8(%ebp)
 10002c7:	8b 45 08             	mov    0x8(%ebp),%eax
 10002ca:	89 45 ec             	mov    %eax,-0x14(%ebp)
 10002cd:	c7 45 e8 00 00 00 00 	movl   $0x0,-0x18(%ebp)
 10002d4:	83 45 f0 24          	addl   $0x24,-0x10(%ebp)
 10002d8:	e9 ad 01 00 00       	jmp    100048a <printf+0x1eb>
 10002dd:	8b 45 08             	mov    0x8(%ebp),%eax
 10002e0:	0f b6 00             	movzbl (%eax),%eax
 10002e3:	84 c0                	test   %al,%al
 10002e5:	75 05                	jne    10002ec <printf+0x4d>
 10002e7:	e9 ac 01 00 00       	jmp    1000498 <printf+0x1f9>
 10002ec:	8b 45 08             	mov    0x8(%ebp),%eax
 10002ef:	0f b6 00             	movzbl (%eax),%eax
 10002f2:	0f be c0             	movsbl %al,%eax
 10002f5:	83 f8 0a             	cmp    $0xa,%eax
 10002f8:	0f 84 e0 00 00 00    	je     10003de <printf+0x13f>
 10002fe:	83 f8 25             	cmp    $0x25,%eax
 1000301:	74 0e                	je     1000311 <printf+0x72>
 1000303:	83 f8 09             	cmp    $0x9,%eax
 1000306:	0f 84 13 01 00 00    	je     100041f <printf+0x180>
 100030c:	e9 4d 01 00 00       	jmp    100045e <printf+0x1bf>
 1000311:	83 45 e8 01          	addl   $0x1,-0x18(%ebp)
 1000315:	83 45 08 01          	addl   $0x1,0x8(%ebp)
 1000319:	8b 45 08             	mov    0x8(%ebp),%eax
 100031c:	0f b6 00             	movzbl (%eax),%eax
 100031f:	0f be c0             	movsbl %al,%eax
 1000322:	83 f8 68             	cmp    $0x68,%eax
 1000325:	74 15                	je     100033c <printf+0x9d>
 1000327:	83 f8 73             	cmp    $0x73,%eax
 100032a:	74 07                	je     1000333 <printf+0x94>
 100032c:	83 f8 25             	cmp    $0x25,%eax
 100032f:	74 3c                	je     100036d <printf+0xce>
 1000331:	eb 66                	jmp    1000399 <printf+0xfa>
 1000333:	83 45 08 01          	addl   $0x1,0x8(%ebp)
 1000337:	e9 9d 00 00 00       	jmp    10003d9 <printf+0x13a>
 100033c:	83 45 08 01          	addl   $0x1,0x8(%ebp)
 1000340:	8b 55 e4             	mov    -0x1c(%ebp),%edx
 1000343:	8b 45 f4             	mov    -0xc(%ebp),%eax
 1000346:	01 c2                	add    %eax,%edx
 1000348:	8b 45 ec             	mov    -0x14(%ebp),%eax
 100034b:	0f b6 00             	movzbl (%eax),%eax
 100034e:	88 02                	mov    %al,(%edx)
 1000350:	8b 45 f4             	mov    -0xc(%ebp),%eax
 1000353:	8d 50 01             	lea    0x1(%eax),%edx
 1000356:	8b 45 e4             	mov    -0x1c(%ebp),%eax
 1000359:	01 c2                	add    %eax,%edx
 100035b:	8b 45 e0             	mov    -0x20(%ebp),%eax
 100035e:	0f b6 00             	movzbl (%eax),%eax
 1000361:	88 02                	mov    %al,(%edx)
 1000363:	83 45 f4 02          	addl   $0x2,-0xc(%ebp)
 1000367:	83 45 ec 01          	addl   $0x1,-0x14(%ebp)
 100036b:	eb d3                	jmp    1000340 <printf+0xa1>
 100036d:	83 6d e8 01          	subl   $0x1,-0x18(%ebp)
 1000371:	83 45 08 01          	addl   $0x1,0x8(%ebp)
 1000375:	8b 55 e4             	mov    -0x1c(%ebp),%edx
 1000378:	8b 45 f4             	mov    -0xc(%ebp),%eax
 100037b:	01 d0                	add    %edx,%eax
 100037d:	c6 00 25             	movb   $0x25,(%eax)
 1000380:	8b 45 f4             	mov    -0xc(%ebp),%eax
 1000383:	8d 50 01             	lea    0x1(%eax),%edx
 1000386:	8b 45 e4             	mov    -0x1c(%ebp),%eax
 1000389:	01 c2                	add    %eax,%edx
 100038b:	8b 45 e0             	mov    -0x20(%ebp),%eax
 100038e:	0f b6 00             	movzbl (%eax),%eax
 1000391:	88 02                	mov    %al,(%edx)
 1000393:	83 45 f4 02          	addl   $0x2,-0xc(%ebp)
 1000397:	eb 40                	jmp    10003d9 <printf+0x13a>
 1000399:	83 45 08 01          	addl   $0x1,0x8(%ebp)
 100039d:	eb 2b                	jmp    10003ca <printf+0x12b>
 100039f:	8b 55 e4             	mov    -0x1c(%ebp),%edx
 10003a2:	8b 45 f4             	mov    -0xc(%ebp),%eax
 10003a5:	01 c2                	add    %eax,%edx
 10003a7:	8b 45 f0             	mov    -0x10(%ebp),%eax
 10003aa:	0f b6 00             	movzbl (%eax),%eax
 10003ad:	88 02                	mov    %al,(%edx)
 10003af:	8b 45 f4             	mov    -0xc(%ebp),%eax
 10003b2:	8d 50 01             	lea    0x1(%eax),%edx
 10003b5:	8b 45 e4             	mov    -0x1c(%ebp),%eax
 10003b8:	01 c2                	add    %eax,%edx
 10003ba:	8b 45 e0             	mov    -0x20(%ebp),%eax
 10003bd:	0f b6 00             	movzbl (%eax),%eax
 10003c0:	88 02                	mov    %al,(%edx)
 10003c2:	83 45 f4 02          	addl   $0x2,-0xc(%ebp)
 10003c6:	83 45 f0 01          	addl   $0x1,-0x10(%ebp)
 10003ca:	8b 45 f0             	mov    -0x10(%ebp),%eax
 10003cd:	0f b6 00             	movzbl (%eax),%eax
 10003d0:	84 c0                	test   %al,%al
 10003d2:	75 cb                	jne    100039f <printf+0x100>
 10003d4:	83 6d f0 04          	subl   $0x4,-0x10(%ebp)
 10003d8:	90                   	nop
 10003d9:	e9 ac 00 00 00       	jmp    100048a <printf+0x1eb>
 10003de:	83 45 08 01          	addl   $0x1,0x8(%ebp)
 10003e2:	8b 4d f4             	mov    -0xc(%ebp),%ecx
 10003e5:	ba cd cc cc cc       	mov    $0xcccccccd,%edx
 10003ea:	89 c8                	mov    %ecx,%eax
 10003ec:	f7 e2                	mul    %edx
 10003ee:	c1 ea 07             	shr    $0x7,%edx
 10003f1:	89 d0                	mov    %edx,%eax
 10003f3:	c1 e0 02             	shl    $0x2,%eax
 10003f6:	01 d0                	add    %edx,%eax
 10003f8:	c1 e0 05             	shl    $0x5,%eax
 10003fb:	29 c1                	sub    %eax,%ecx
 10003fd:	89 ca                	mov    %ecx,%edx
 10003ff:	8b 45 f4             	mov    -0xc(%ebp),%eax
 1000402:	29 d0                	sub    %edx,%eax
 1000404:	05 a0 00 00 00       	add    $0xa0,%eax
 1000409:	83 ec 0c             	sub    $0xc,%esp
 100040c:	50                   	push   %eax
 100040d:	e8 a5 00 00 00       	call   10004b7 <setposition>
 1000412:	83 c4 10             	add    $0x10,%esp
 1000415:	a1 00 80 00 01       	mov    0x1008000,%eax
 100041a:	89 45 f4             	mov    %eax,-0xc(%ebp)
 100041d:	eb 6b                	jmp    100048a <printf+0x1eb>
 100041f:	83 45 08 01          	addl   $0x1,0x8(%ebp)
 1000423:	8b 4d f4             	mov    -0xc(%ebp),%ecx
 1000426:	ba cd cc cc cc       	mov    $0xcccccccd,%edx
 100042b:	89 c8                	mov    %ecx,%eax
 100042d:	f7 e2                	mul    %edx
 100042f:	c1 ea 04             	shr    $0x4,%edx
 1000432:	89 d0                	mov    %edx,%eax
 1000434:	c1 e0 02             	shl    $0x2,%eax
 1000437:	01 d0                	add    %edx,%eax
 1000439:	c1 e0 02             	shl    $0x2,%eax
 100043c:	29 c1                	sub    %eax,%ecx
 100043e:	89 ca                	mov    %ecx,%edx
 1000440:	8b 45 f4             	mov    -0xc(%ebp),%eax
 1000443:	29 d0                	sub    %edx,%eax
 1000445:	83 c0 14             	add    $0x14,%eax
 1000448:	83 ec 0c             	sub    $0xc,%esp
 100044b:	50                   	push   %eax
 100044c:	e8 66 00 00 00       	call   10004b7 <setposition>
 1000451:	83 c4 10             	add    $0x10,%esp
 1000454:	a1 00 80 00 01       	mov    0x1008000,%eax
 1000459:	89 45 f4             	mov    %eax,-0xc(%ebp)
 100045c:	eb 2c                	jmp    100048a <printf+0x1eb>
 100045e:	8b 55 e4             	mov    -0x1c(%ebp),%edx
 1000461:	8b 45 f4             	mov    -0xc(%ebp),%eax
 1000464:	01 c2                	add    %eax,%edx
 1000466:	8b 45 08             	mov    0x8(%ebp),%eax
 1000469:	0f b6 00             	movzbl (%eax),%eax
 100046c:	88 02                	mov    %al,(%edx)
 100046e:	8b 45 f4             	mov    -0xc(%ebp),%eax
 1000471:	8d 50 01             	lea    0x1(%eax),%edx
 1000474:	8b 45 e4             	mov    -0x1c(%ebp),%eax
 1000477:	01 c2                	add    %eax,%edx
 1000479:	8b 45 e0             	mov    -0x20(%ebp),%eax
 100047c:	0f b6 00             	movzbl (%eax),%eax
 100047f:	88 02                	mov    %al,(%edx)
 1000481:	83 45 f4 02          	addl   $0x2,-0xc(%ebp)
 1000485:	83 45 08 01          	addl   $0x1,0x8(%ebp)
 1000489:	90                   	nop
 100048a:	8b 45 08             	mov    0x8(%ebp),%eax
 100048d:	0f b6 00             	movzbl (%eax),%eax
 1000490:	84 c0                	test   %al,%al
 1000492:	0f 85 45 fe ff ff    	jne    10002dd <printf+0x3e>
 1000498:	81 7d f4 fe 0f 00 00 	cmpl   $0xffe,-0xc(%ebp)
 100049f:	77 0a                	ja     10004ab <printf+0x20c>
 10004a1:	8b 45 f4             	mov    -0xc(%ebp),%eax
 10004a4:	a3 00 80 00 01       	mov    %eax,0x1008000
 10004a9:	eb 0a                	jmp    10004b5 <printf+0x216>
 10004ab:	c7 05 00 80 00 01 00 	movl   $0x0,0x1008000
 10004b2:	00 00 00 
 10004b5:	c9                   	leave  
 10004b6:	c3                   	ret    

010004b7 <setposition>:
 10004b7:	55                   	push   %ebp
 10004b8:	89 e5                	mov    %esp,%ebp
 10004ba:	8b 45 08             	mov    0x8(%ebp),%eax
 10004bd:	a3 00 80 00 01       	mov    %eax,0x1008000
 10004c2:	5d                   	pop    %ebp
 10004c3:	c3                   	ret    

010004c4 <setcolor>:
 10004c4:	55                   	push   %ebp
 10004c5:	89 e5                	mov    %esp,%ebp
 10004c7:	83 ec 04             	sub    $0x4,%esp
 10004ca:	8b 45 08             	mov    0x8(%ebp),%eax
 10004cd:	88 45 fc             	mov    %al,-0x4(%ebp)
 10004d0:	a1 04 80 00 01       	mov    0x1008004,%eax
 10004d5:	0f b6 55 fc          	movzbl -0x4(%ebp),%edx
 10004d9:	88 10                	mov    %dl,(%eax)
 10004db:	c9                   	leave  
 10004dc:	c3                   	ret    

010004dd <clrscr>:
 10004dd:	55                   	push   %ebp
 10004de:	89 e5                	mov    %esp,%ebp
 10004e0:	83 ec 10             	sub    $0x10,%esp
 10004e3:	c7 45 f8 00 80 0b 00 	movl   $0xb8000,-0x8(%ebp)
 10004ea:	a1 04 80 00 01       	mov    0x1008004,%eax
 10004ef:	89 45 f4             	mov    %eax,-0xc(%ebp)
 10004f2:	c7 45 fc 00 00 00 00 	movl   $0x0,-0x4(%ebp)
 10004f9:	eb 22                	jmp    100051d <clrscr+0x40>
 10004fb:	8b 55 f8             	mov    -0x8(%ebp),%edx
 10004fe:	8b 45 fc             	mov    -0x4(%ebp),%eax
 1000501:	01 d0                	add    %edx,%eax
 1000503:	c6 00 00             	movb   $0x0,(%eax)
 1000506:	8b 45 fc             	mov    -0x4(%ebp),%eax
 1000509:	8d 50 01             	lea    0x1(%eax),%edx
 100050c:	8b 45 f8             	mov    -0x8(%ebp),%eax
 100050f:	01 c2                	add    %eax,%edx
 1000511:	8b 45 f4             	mov    -0xc(%ebp),%eax
 1000514:	0f b6 00             	movzbl (%eax),%eax
 1000517:	88 02                	mov    %al,(%edx)
 1000519:	83 45 fc 02          	addl   $0x2,-0x4(%ebp)
 100051d:	81 7d fc 40 1f 00 00 	cmpl   $0x1f40,-0x4(%ebp)
 1000524:	75 d5                	jne    10004fb <clrscr+0x1e>
 1000526:	6a 00                	push   $0x0
 1000528:	e8 8a ff ff ff       	call   10004b7 <setposition>
 100052d:	83 c4 04             	add    $0x4,%esp
 1000530:	c9                   	leave  
 1000531:	c3                   	ret    

01000532 <idt_flush>:
 1000532:	55                   	push   %ebp
 1000533:	89 e5                	mov    %esp,%ebp
 1000535:	0f 01 1d 40 a6 00 01 	lidtl  0x100a640
 100053c:	5d                   	pop    %ebp
 100053d:	c3                   	ret    

0100053e <INT_DE>:
 100053e:	e8 01 00 00 00       	call   1000544 <_INT_DE>
 1000543:	cf                   	iret   

01000544 <_INT_DE>:
 1000544:	55                   	push   %ebp
 1000545:	89 e5                	mov    %esp,%ebp
 1000547:	83 ec 08             	sub    $0x8,%esp
 100054a:	83 ec 0c             	sub    $0xc,%esp
 100054d:	68 07 5e 00 01       	push   $0x1005e07
 1000552:	e8 48 fd ff ff       	call   100029f <printf>
 1000557:	83 c4 10             	add    $0x10,%esp
 100055a:	fa                   	cli    
 100055b:	f4                   	hlt    
 100055c:	eb fe                	jmp    100055c <_INT_DE+0x18>

0100055e <INT_DB>:
 100055e:	e8 01 00 00 00       	call   1000564 <_INT_DB>
 1000563:	cf                   	iret   

01000564 <_INT_DB>:
 1000564:	55                   	push   %ebp
 1000565:	89 e5                	mov    %esp,%ebp
 1000567:	83 ec 08             	sub    $0x8,%esp
 100056a:	83 ec 0c             	sub    $0xc,%esp
 100056d:	68 22 5e 00 01       	push   $0x1005e22
 1000572:	e8 28 fd ff ff       	call   100029f <printf>
 1000577:	83 c4 10             	add    $0x10,%esp
 100057a:	fa                   	cli    
 100057b:	f4                   	hlt    
 100057c:	eb fe                	jmp    100057c <_INT_DB+0x18>

0100057e <INT_NMI>:
 100057e:	e8 01 00 00 00       	call   1000584 <_INT_NMI>
 1000583:	cf                   	iret   

01000584 <_INT_NMI>:
 1000584:	55                   	push   %ebp
 1000585:	89 e5                	mov    %esp,%ebp
 1000587:	83 ec 08             	sub    $0x8,%esp
 100058a:	83 ec 0c             	sub    $0xc,%esp
 100058d:	68 39 5e 00 01       	push   $0x1005e39
 1000592:	e8 08 fd ff ff       	call   100029f <printf>
 1000597:	83 c4 10             	add    $0x10,%esp
 100059a:	fa                   	cli    
 100059b:	f4                   	hlt    
 100059c:	eb fe                	jmp    100059c <_INT_NMI+0x18>

0100059e <INT_BP>:
 100059e:	e8 01 00 00 00       	call   10005a4 <_INT_BP>
 10005a3:	cf                   	iret   

010005a4 <_INT_BP>:
 10005a4:	55                   	push   %ebp
 10005a5:	89 e5                	mov    %esp,%ebp
 10005a7:	83 ec 08             	sub    $0x8,%esp
 10005aa:	83 ec 0c             	sub    $0xc,%esp
 10005ad:	68 4e 5e 00 01       	push   $0x1005e4e
 10005b2:	e8 e8 fc ff ff       	call   100029f <printf>
 10005b7:	83 c4 10             	add    $0x10,%esp
 10005ba:	fa                   	cli    
 10005bb:	f4                   	hlt    
 10005bc:	eb fe                	jmp    10005bc <_INT_BP+0x18>

010005be <INT_OF>:
 10005be:	e8 01 00 00 00       	call   10005c4 <_INT_OF>
 10005c3:	cf                   	iret   

010005c4 <_INT_OF>:
 10005c4:	55                   	push   %ebp
 10005c5:	89 e5                	mov    %esp,%ebp
 10005c7:	83 ec 08             	sub    $0x8,%esp
 10005ca:	83 ec 0c             	sub    $0xc,%esp
 10005cd:	68 6a 5e 00 01       	push   $0x1005e6a
 10005d2:	e8 c8 fc ff ff       	call   100029f <printf>
 10005d7:	83 c4 10             	add    $0x10,%esp
 10005da:	fa                   	cli    
 10005db:	f4                   	hlt    
 10005dc:	eb fe                	jmp    10005dc <_INT_OF+0x18>

010005de <INT_BR>:
 10005de:	e8 01 00 00 00       	call   10005e4 <_INT_BR>
 10005e3:	cf                   	iret   

010005e4 <_INT_BR>:
 10005e4:	55                   	push   %ebp
 10005e5:	89 e5                	mov    %esp,%ebp
 10005e7:	83 ec 08             	sub    $0x8,%esp
 10005ea:	83 ec 0c             	sub    $0xc,%esp
 10005ed:	68 84 5e 00 01       	push   $0x1005e84
 10005f2:	e8 a8 fc ff ff       	call   100029f <printf>
 10005f7:	83 c4 10             	add    $0x10,%esp
 10005fa:	fa                   	cli    
 10005fb:	f4                   	hlt    
 10005fc:	eb fe                	jmp    10005fc <_INT_BR+0x18>

010005fe <INT_UD>:
 10005fe:	e8 01 00 00 00       	call   1000604 <_INT_UD>
 1000603:	cf                   	iret   

01000604 <_INT_UD>:
 1000604:	55                   	push   %ebp
 1000605:	89 e5                	mov    %esp,%ebp
 1000607:	83 ec 18             	sub    $0x18,%esp
 100060a:	c7 45 f4 00 00 00 00 	movl   $0x0,-0xc(%ebp)
 1000611:	66 c7 45 f2 00 00    	movw   $0x0,-0xe(%ebp)
 1000617:	58                   	pop    %eax
 1000618:	89 45 f4             	mov    %eax,-0xc(%ebp)
 100061b:	66 58                	pop    %ax
 100061d:	66 89 45 f2          	mov    %ax,-0xe(%ebp)
 1000621:	83 ec 0c             	sub    $0xc,%esp
 1000624:	68 b4 5e 00 01       	push   $0x1005eb4
 1000629:	e8 71 fc ff ff       	call   100029f <printf>
 100062e:	83 c4 10             	add    $0x10,%esp
 1000631:	8b 45 f4             	mov    -0xc(%ebp),%eax
 1000634:	83 ec 08             	sub    $0x8,%esp
 1000637:	6a 08                	push   $0x8
 1000639:	50                   	push   %eax
 100063a:	e8 94 fb ff ff       	call   10001d3 <HexInAsciiSz>
 100063f:	83 c4 10             	add    $0x10,%esp
 1000642:	0f b7 45 f2          	movzwl -0xe(%ebp),%eax
 1000646:	83 ec 08             	sub    $0x8,%esp
 1000649:	6a 08                	push   $0x8
 100064b:	50                   	push   %eax
 100064c:	e8 82 fb ff ff       	call   10001d3 <HexInAsciiSz>
 1000651:	83 c4 10             	add    $0x10,%esp
 1000654:	fa                   	cli    
 1000655:	f4                   	hlt    
 1000656:	eb fe                	jmp    1000656 <_INT_UD+0x52>

01000658 <INT_NM>:
 1000658:	e8 01 00 00 00       	call   100065e <_INT_NM>
 100065d:	cf                   	iret   

0100065e <_INT_NM>:
 100065e:	55                   	push   %ebp
 100065f:	89 e5                	mov    %esp,%ebp
 1000661:	83 ec 08             	sub    $0x8,%esp
 1000664:	83 ec 0c             	sub    $0xc,%esp
 1000667:	68 d8 5e 00 01       	push   $0x1005ed8
 100066c:	e8 2e fc ff ff       	call   100029f <printf>
 1000671:	83 c4 10             	add    $0x10,%esp
 1000674:	fa                   	cli    
 1000675:	f4                   	hlt    
 1000676:	eb fe                	jmp    1000676 <_INT_NM+0x18>

01000678 <INT_DF>:
 1000678:	e8 01 00 00 00       	call   100067e <_INT_DF>
 100067d:	cf                   	iret   

0100067e <_INT_DF>:
 100067e:	55                   	push   %ebp
 100067f:	89 e5                	mov    %esp,%ebp
 1000681:	83 ec 08             	sub    $0x8,%esp
 1000684:	83 ec 0c             	sub    $0xc,%esp
 1000687:	68 00 5f 00 01       	push   $0x1005f00
 100068c:	e8 0e fc ff ff       	call   100029f <printf>
 1000691:	83 c4 10             	add    $0x10,%esp
 1000694:	fa                   	cli    
 1000695:	f4                   	hlt    
 1000696:	eb fe                	jmp    1000696 <_INT_DF+0x18>

01000698 <INT_soproc>:
 1000698:	e8 01 00 00 00       	call   100069e <_INT_soproc>
 100069d:	cf                   	iret   

0100069e <_INT_soproc>:
 100069e:	55                   	push   %ebp
 100069f:	89 e5                	mov    %esp,%ebp
 10006a1:	83 ec 08             	sub    $0x8,%esp
 10006a4:	83 ec 0c             	sub    $0xc,%esp
 10006a7:	68 25 5f 00 01       	push   $0x1005f25
 10006ac:	e8 ee fb ff ff       	call   100029f <printf>
 10006b1:	83 c4 10             	add    $0x10,%esp
 10006b4:	c9                   	leave  
 10006b5:	c3                   	ret    

010006b6 <INT_TS>:
 10006b6:	e8 01 00 00 00       	call   10006bc <_INT_TS>
 10006bb:	cf                   	iret   

010006bc <_INT_TS>:
 10006bc:	55                   	push   %ebp
 10006bd:	89 e5                	mov    %esp,%ebp
 10006bf:	83 ec 08             	sub    $0x8,%esp
 10006c2:	83 ec 0c             	sub    $0xc,%esp
 10006c5:	68 3d 5f 00 01       	push   $0x1005f3d
 10006ca:	e8 d0 fb ff ff       	call   100029f <printf>
 10006cf:	83 c4 10             	add    $0x10,%esp
 10006d2:	fa                   	cli    
 10006d3:	f4                   	hlt    
 10006d4:	eb fe                	jmp    10006d4 <_INT_TS+0x18>

010006d6 <INT_NP>:
 10006d6:	e8 01 00 00 00       	call   10006dc <_INT_NP>
 10006db:	cf                   	iret   

010006dc <_INT_NP>:
 10006dc:	55                   	push   %ebp
 10006dd:	89 e5                	mov    %esp,%ebp
 10006df:	83 ec 08             	sub    $0x8,%esp
 10006e2:	83 ec 0c             	sub    $0xc,%esp
 10006e5:	68 5c 5f 00 01       	push   $0x1005f5c
 10006ea:	e8 b0 fb ff ff       	call   100029f <printf>
 10006ef:	83 c4 10             	add    $0x10,%esp
 10006f2:	fa                   	cli    
 10006f3:	f4                   	hlt    
 10006f4:	eb fe                	jmp    10006f4 <_INT_NP+0x18>

010006f6 <INT_SS>:
 10006f6:	e8 01 00 00 00       	call   10006fc <_INT_SS>
 10006fb:	cf                   	iret   

010006fc <_INT_SS>:
 10006fc:	55                   	push   %ebp
 10006fd:	89 e5                	mov    %esp,%ebp
 10006ff:	83 ec 08             	sub    $0x8,%esp
 1000702:	83 ec 0c             	sub    $0xc,%esp
 1000705:	68 88 5f 00 01       	push   $0x1005f88
 100070a:	e8 90 fb ff ff       	call   100029f <printf>
 100070f:	83 c4 10             	add    $0x10,%esp
 1000712:	fa                   	cli    
 1000713:	f4                   	hlt    
 1000714:	eb fe                	jmp    1000714 <_INT_SS+0x18>

01000716 <INT_GP>:
 1000716:	e8 01 00 00 00       	call   100071c <_INT_GP>
 100071b:	cf                   	iret   

0100071c <_INT_GP>:
 100071c:	55                   	push   %ebp
 100071d:	89 e5                	mov    %esp,%ebp
 100071f:	83 ec 08             	sub    $0x8,%esp
 1000722:	83 ec 0c             	sub    $0xc,%esp
 1000725:	68 b0 5f 00 01       	push   $0x1005fb0
 100072a:	e8 70 fb ff ff       	call   100029f <printf>
 100072f:	83 c4 10             	add    $0x10,%esp
 1000732:	fa                   	cli    
 1000733:	f4                   	hlt    
 1000734:	eb fe                	jmp    1000734 <_INT_GP+0x18>

01000736 <INT_PF>:
 1000736:	e8 01 00 00 00       	call   100073c <_INT_PF>
 100073b:	cf                   	iret   

0100073c <_INT_PF>:
 100073c:	55                   	push   %ebp
 100073d:	89 e5                	mov    %esp,%ebp
 100073f:	83 ec 18             	sub    $0x18,%esp
 1000742:	e8 d9 f8 ff ff       	call   1000020 <idt_closed>
 1000747:	0f 20 d0             	mov    %cr2,%eax
 100074a:	89 45 f4             	mov    %eax,-0xc(%ebp)
 100074d:	83 ec 0c             	sub    $0xc,%esp
 1000750:	68 d4 5f 00 01       	push   $0x1005fd4
 1000755:	e8 45 fb ff ff       	call   100029f <printf>
 100075a:	83 c4 10             	add    $0x10,%esp
 100075d:	8b 45 f4             	mov    -0xc(%ebp),%eax
 1000760:	83 ec 08             	sub    $0x8,%esp
 1000763:	6a 08                	push   $0x8
 1000765:	50                   	push   %eax
 1000766:	e8 68 fa ff ff       	call   10001d3 <HexInAsciiSz>
 100076b:	83 c4 10             	add    $0x10,%esp
 100076e:	83 ec 04             	sub    $0x4,%esp
 1000771:	68 00 10 00 00       	push   $0x1000
 1000776:	ff 75 f4             	pushl  -0xc(%ebp)
 1000779:	ff 75 f4             	pushl  -0xc(%ebp)
 100077c:	e8 25 2e 00 00       	call   10035a6 <HardFrameFrTo>
 1000781:	83 c4 10             	add    $0x10,%esp
 1000784:	83 ec 04             	sub    $0x4,%esp
 1000787:	6a 00                	push   $0x0
 1000789:	6a 00                	push   $0x0
 100078b:	68 00 00 30 00       	push   $0x300000
 1000790:	e8 1d 2b 00 00       	call   10032b2 <MemSet_CR3>
 1000795:	83 c4 10             	add    $0x10,%esp
 1000798:	e8 89 f8 ff ff       	call   1000026 <idt_open>
 100079d:	fa                   	cli    
 100079e:	f4                   	hlt    
 100079f:	eb fe                	jmp    100079f <_INT_PF+0x63>

010007a1 <INT_Intelreserv>:
 10007a1:	e8 01 00 00 00       	call   10007a7 <_INT_Intelreserv>
 10007a6:	cf                   	iret   

010007a7 <_INT_Intelreserv>:
 10007a7:	55                   	push   %ebp
 10007a8:	89 e5                	mov    %esp,%ebp
 10007aa:	83 ec 08             	sub    $0x8,%esp
 10007ad:	83 ec 0c             	sub    $0xc,%esp
 10007b0:	68 f8 5f 00 01       	push   $0x1005ff8
 10007b5:	e8 e5 fa ff ff       	call   100029f <printf>
 10007ba:	83 c4 10             	add    $0x10,%esp
 10007bd:	c9                   	leave  
 10007be:	c3                   	ret    

010007bf <INT_MF>:
 10007bf:	e8 01 00 00 00       	call   10007c5 <_INT_MF>
 10007c4:	cf                   	iret   

010007c5 <_INT_MF>:
 10007c5:	55                   	push   %ebp
 10007c6:	89 e5                	mov    %esp,%ebp
 10007c8:	83 ec 08             	sub    $0x8,%esp
 10007cb:	83 ec 0c             	sub    $0xc,%esp
 10007ce:	68 17 60 00 01       	push   $0x1006017
 10007d3:	e8 c7 fa ff ff       	call   100029f <printf>
 10007d8:	83 c4 10             	add    $0x10,%esp
 10007db:	fa                   	cli    
 10007dc:	f4                   	hlt    
 10007dd:	eb fe                	jmp    10007dd <_INT_MF+0x18>

010007df <INT_AC>:
 10007df:	e8 01 00 00 00       	call   10007e5 <_INT_AC>
 10007e4:	cf                   	iret   

010007e5 <_INT_AC>:
 10007e5:	55                   	push   %ebp
 10007e6:	89 e5                	mov    %esp,%ebp
 10007e8:	83 ec 08             	sub    $0x8,%esp
 10007eb:	83 ec 0c             	sub    $0xc,%esp
 10007ee:	68 38 60 00 01       	push   $0x1006038
 10007f3:	e8 a7 fa ff ff       	call   100029f <printf>
 10007f8:	83 c4 10             	add    $0x10,%esp
 10007fb:	fa                   	cli    
 10007fc:	f4                   	hlt    
 10007fd:	eb fe                	jmp    10007fd <_INT_AC+0x18>

010007ff <INT_MC>:
 10007ff:	e8 01 00 00 00       	call   1000805 <_INT_MC>
 1000804:	cf                   	iret   

01000805 <_INT_MC>:
 1000805:	55                   	push   %ebp
 1000806:	89 e5                	mov    %esp,%ebp
 1000808:	83 ec 08             	sub    $0x8,%esp
 100080b:	83 ec 0c             	sub    $0xc,%esp
 100080e:	68 58 60 00 01       	push   $0x1006058
 1000813:	e8 87 fa ff ff       	call   100029f <printf>
 1000818:	83 c4 10             	add    $0x10,%esp
 100081b:	fa                   	cli    
 100081c:	f4                   	hlt    
 100081d:	eb fe                	jmp    100081d <_INT_MC+0x18>

0100081f <INT_XF>:
 100081f:	e8 01 00 00 00       	call   1000825 <_INT_XF>
 1000824:	cf                   	iret   

01000825 <_INT_XF>:
 1000825:	55                   	push   %ebp
 1000826:	89 e5                	mov    %esp,%ebp
 1000828:	83 ec 08             	sub    $0x8,%esp
 100082b:	83 ec 0c             	sub    $0xc,%esp
 100082e:	68 78 60 00 01       	push   $0x1006078
 1000833:	e8 67 fa ff ff       	call   100029f <printf>
 1000838:	83 c4 10             	add    $0x10,%esp
 100083b:	fa                   	cli    
 100083c:	f4                   	hlt    
 100083d:	eb fe                	jmp    100083d <_INT_XF+0x18>

0100083f <IRQ_Timer>:
 100083f:	60                   	pusha  
 1000840:	e8 08 00 00 00       	call   100084d <_IRQ_Timer>
 1000845:	b0 20                	mov    $0x20,%al
 1000847:	e6 20                	out    %al,$0x20
 1000849:	e6 a0                	out    %al,$0xa0
 100084b:	61                   	popa   
 100084c:	cf                   	iret   

0100084d <_IRQ_Timer>:
 100084d:	55                   	push   %ebp
 100084e:	89 e5                	mov    %esp,%ebp
 1000850:	5d                   	pop    %ebp
 1000851:	c3                   	ret    

01000852 <IRQ_Keybord>:
 1000852:	60                   	pusha  
 1000853:	e8 08 00 00 00       	call   1000860 <_IRQ_Keybord>
 1000858:	b0 20                	mov    $0x20,%al
 100085a:	e6 20                	out    %al,$0x20
 100085c:	e6 a0                	out    %al,$0xa0
 100085e:	61                   	popa   
 100085f:	cf                   	iret   

01000860 <_IRQ_Keybord>:
 1000860:	55                   	push   %ebp
 1000861:	89 e5                	mov    %esp,%ebp
 1000863:	83 ec 08             	sub    $0x8,%esp
 1000866:	83 ec 0c             	sub    $0xc,%esp
 1000869:	68 a3 60 00 01       	push   $0x10060a3
 100086e:	e8 2c fa ff ff       	call   100029f <printf>
 1000873:	83 c4 10             	add    $0x10,%esp
 1000876:	fa                   	cli    
 1000877:	f4                   	hlt    
 1000878:	eb fe                	jmp    1000878 <_IRQ_Keybord+0x18>

0100087a <IQR_IQR2>:
 100087a:	60                   	pusha  
 100087b:	e8 08 00 00 00       	call   1000888 <_IQR_IQR2>
 1000880:	b0 20                	mov    $0x20,%al
 1000882:	e6 20                	out    %al,$0x20
 1000884:	e6 a0                	out    %al,$0xa0
 1000886:	61                   	popa   
 1000887:	cf                   	iret   

01000888 <_IQR_IQR2>:
 1000888:	55                   	push   %ebp
 1000889:	89 e5                	mov    %esp,%ebp
 100088b:	fa                   	cli    
 100088c:	f4                   	hlt    
 100088d:	eb fe                	jmp    100088d <_IQR_IQR2+0x5>

0100088f <IQR_COM2_4>:
 100088f:	60                   	pusha  
 1000890:	e8 08 00 00 00       	call   100089d <_IQR_COM2_4>
 1000895:	b0 20                	mov    $0x20,%al
 1000897:	e6 20                	out    %al,$0x20
 1000899:	e6 a0                	out    %al,$0xa0
 100089b:	61                   	popa   
 100089c:	cf                   	iret   

0100089d <_IQR_COM2_4>:
 100089d:	55                   	push   %ebp
 100089e:	89 e5                	mov    %esp,%ebp
 10008a0:	fa                   	cli    
 10008a1:	f4                   	hlt    
 10008a2:	eb fe                	jmp    10008a2 <_IQR_COM2_4+0x5>

010008a4 <IQR_COM1_3>:
 10008a4:	60                   	pusha  
 10008a5:	e8 08 00 00 00       	call   10008b2 <_IQR_COM1_3>
 10008aa:	b0 20                	mov    $0x20,%al
 10008ac:	e6 20                	out    %al,$0x20
 10008ae:	e6 a0                	out    %al,$0xa0
 10008b0:	61                   	popa   
 10008b1:	cf                   	iret   

010008b2 <_IQR_COM1_3>:
 10008b2:	55                   	push   %ebp
 10008b3:	89 e5                	mov    %esp,%ebp
 10008b5:	83 ec 08             	sub    $0x8,%esp
 10008b8:	83 ec 0c             	sub    $0xc,%esp
 10008bb:	68 af 60 00 01       	push   $0x10060af
 10008c0:	e8 da f9 ff ff       	call   100029f <printf>
 10008c5:	83 c4 10             	add    $0x10,%esp
 10008c8:	c9                   	leave  
 10008c9:	c3                   	ret    

010008ca <IQR_LTP2>:
 10008ca:	60                   	pusha  
 10008cb:	e8 08 00 00 00       	call   10008d8 <_IQR_LTP2>
 10008d0:	b0 20                	mov    $0x20,%al
 10008d2:	e6 20                	out    %al,$0x20
 10008d4:	e6 a0                	out    %al,$0xa0
 10008d6:	61                   	popa   
 10008d7:	cf                   	iret   

010008d8 <_IQR_LTP2>:
 10008d8:	55                   	push   %ebp
 10008d9:	89 e5                	mov    %esp,%ebp
 10008db:	83 ec 08             	sub    $0x8,%esp
 10008de:	83 ec 0c             	sub    $0xc,%esp
 10008e1:	68 ba 60 00 01       	push   $0x10060ba
 10008e6:	e8 b4 f9 ff ff       	call   100029f <printf>
 10008eb:	83 c4 10             	add    $0x10,%esp
 10008ee:	c9                   	leave  
 10008ef:	c3                   	ret    

010008f0 <IQR_FloppyDC>:
 10008f0:	60                   	pusha  
 10008f1:	e8 08 00 00 00       	call   10008fe <_IQR_FloppyDC>
 10008f6:	b0 20                	mov    $0x20,%al
 10008f8:	e6 20                	out    %al,$0x20
 10008fa:	e6 a0                	out    %al,$0xa0
 10008fc:	61                   	popa   
 10008fd:	cf                   	iret   

010008fe <_IQR_FloppyDC>:
 10008fe:	55                   	push   %ebp
 10008ff:	89 e5                	mov    %esp,%ebp
 1000901:	83 ec 08             	sub    $0x8,%esp
 1000904:	83 ec 0c             	sub    $0xc,%esp
 1000907:	68 c4 60 00 01       	push   $0x10060c4
 100090c:	e8 8e f9 ff ff       	call   100029f <printf>
 1000911:	83 c4 10             	add    $0x10,%esp
 1000914:	c9                   	leave  
 1000915:	c3                   	ret    

01000916 <IQR_LTP1>:
 1000916:	60                   	pusha  
 1000917:	e8 08 00 00 00       	call   1000924 <_IQR_LTP1>
 100091c:	b0 20                	mov    $0x20,%al
 100091e:	e6 20                	out    %al,$0x20
 1000920:	e6 a0                	out    %al,$0xa0
 1000922:	61                   	popa   
 1000923:	cf                   	iret   

01000924 <_IQR_LTP1>:
 1000924:	55                   	push   %ebp
 1000925:	89 e5                	mov    %esp,%ebp
 1000927:	83 ec 08             	sub    $0x8,%esp
 100092a:	83 ec 0c             	sub    $0xc,%esp
 100092d:	68 d1 60 00 01       	push   $0x10060d1
 1000932:	e8 68 f9 ff ff       	call   100029f <printf>
 1000937:	83 c4 10             	add    $0x10,%esp
 100093a:	c9                   	leave  
 100093b:	c3                   	ret    

0100093c <IQR_RTC>:
 100093c:	60                   	pusha  
 100093d:	e8 08 00 00 00       	call   100094a <_IQR_RTC>
 1000942:	b0 20                	mov    $0x20,%al
 1000944:	e6 20                	out    %al,$0x20
 1000946:	e6 a0                	out    %al,$0xa0
 1000948:	61                   	popa   
 1000949:	cf                   	iret   

0100094a <_IQR_RTC>:
 100094a:	55                   	push   %ebp
 100094b:	89 e5                	mov    %esp,%ebp
 100094d:	83 ec 08             	sub    $0x8,%esp
 1000950:	83 ec 0c             	sub    $0xc,%esp
 1000953:	68 db 60 00 01       	push   $0x10060db
 1000958:	e8 42 f9 ff ff       	call   100029f <printf>
 100095d:	83 c4 10             	add    $0x10,%esp
 1000960:	c9                   	leave  
 1000961:	c3                   	ret    

01000962 <IQR_RedirectIQR2>:
 1000962:	60                   	pusha  
 1000963:	e8 08 00 00 00       	call   1000970 <_IQR_RedirectIQR2>
 1000968:	b0 20                	mov    $0x20,%al
 100096a:	e6 20                	out    %al,$0x20
 100096c:	e6 a0                	out    %al,$0xa0
 100096e:	61                   	popa   
 100096f:	cf                   	iret   

01000970 <_IQR_RedirectIQR2>:
 1000970:	55                   	push   %ebp
 1000971:	89 e5                	mov    %esp,%ebp
 1000973:	83 ec 08             	sub    $0x8,%esp
 1000976:	83 ec 0c             	sub    $0xc,%esp
 1000979:	68 e3 60 00 01       	push   $0x10060e3
 100097e:	e8 1c f9 ff ff       	call   100029f <printf>
 1000983:	83 c4 10             	add    $0x10,%esp
 1000986:	c9                   	leave  
 1000987:	c3                   	ret    

01000988 <IQR_Reserv1>:
 1000988:	60                   	pusha  
 1000989:	e8 08 00 00 00       	call   1000996 <_IQR_Reserv1>
 100098e:	b0 20                	mov    $0x20,%al
 1000990:	e6 20                	out    %al,$0x20
 1000992:	e6 a0                	out    %al,$0xa0
 1000994:	61                   	popa   
 1000995:	cf                   	iret   

01000996 <_IQR_Reserv1>:
 1000996:	55                   	push   %ebp
 1000997:	89 e5                	mov    %esp,%ebp
 1000999:	83 ec 08             	sub    $0x8,%esp
 100099c:	83 ec 0c             	sub    $0xc,%esp
 100099f:	68 f4 60 00 01       	push   $0x10060f4
 10009a4:	e8 f6 f8 ff ff       	call   100029f <printf>
 10009a9:	83 c4 10             	add    $0x10,%esp
 10009ac:	c9                   	leave  
 10009ad:	c3                   	ret    

010009ae <IQR_Reserv2>:
 10009ae:	60                   	pusha  
 10009af:	e8 08 00 00 00       	call   10009bc <_IQR_Reserv2>
 10009b4:	b0 20                	mov    $0x20,%al
 10009b6:	e6 20                	out    %al,$0x20
 10009b8:	e6 a0                	out    %al,$0xa0
 10009ba:	61                   	popa   
 10009bb:	cf                   	iret   

010009bc <_IQR_Reserv2>:
 10009bc:	55                   	push   %ebp
 10009bd:	89 e5                	mov    %esp,%ebp
 10009bf:	83 ec 08             	sub    $0x8,%esp
 10009c2:	83 ec 0c             	sub    $0xc,%esp
 10009c5:	68 01 61 00 01       	push   $0x1006101
 10009ca:	e8 d0 f8 ff ff       	call   100029f <printf>
 10009cf:	83 c4 10             	add    $0x10,%esp
 10009d2:	c9                   	leave  
 10009d3:	c3                   	ret    

010009d4 <IQR_Reserv3>:
 10009d4:	60                   	pusha  
 10009d5:	e8 08 00 00 00       	call   10009e2 <_IQR_Reserv3>
 10009da:	b0 20                	mov    $0x20,%al
 10009dc:	e6 20                	out    %al,$0x20
 10009de:	e6 a0                	out    %al,$0xa0
 10009e0:	61                   	popa   
 10009e1:	cf                   	iret   

010009e2 <_IQR_Reserv3>:
 10009e2:	55                   	push   %ebp
 10009e3:	89 e5                	mov    %esp,%ebp
 10009e5:	83 ec 08             	sub    $0x8,%esp
 10009e8:	83 ec 0c             	sub    $0xc,%esp
 10009eb:	68 0e 61 00 01       	push   $0x100610e
 10009f0:	e8 aa f8 ff ff       	call   100029f <printf>
 10009f5:	83 c4 10             	add    $0x10,%esp
 10009f8:	c9                   	leave  
 10009f9:	c3                   	ret    

010009fa <IQR_SoProcessor>:
 10009fa:	60                   	pusha  
 10009fb:	e8 08 00 00 00       	call   1000a08 <_IQR_SoProcessor>
 1000a00:	b0 20                	mov    $0x20,%al
 1000a02:	e6 20                	out    %al,$0x20
 1000a04:	e6 a0                	out    %al,$0xa0
 1000a06:	61                   	popa   
 1000a07:	cf                   	iret   

01000a08 <_IQR_SoProcessor>:
 1000a08:	55                   	push   %ebp
 1000a09:	89 e5                	mov    %esp,%ebp
 1000a0b:	83 ec 08             	sub    $0x8,%esp
 1000a0e:	83 ec 0c             	sub    $0xc,%esp
 1000a11:	68 1b 61 00 01       	push   $0x100611b
 1000a16:	e8 84 f8 ff ff       	call   100029f <printf>
 1000a1b:	83 c4 10             	add    $0x10,%esp
 1000a1e:	c9                   	leave  
 1000a1f:	c3                   	ret    

01000a20 <IQR_HardDC>:
 1000a20:	60                   	pusha  
 1000a21:	e8 08 00 00 00       	call   1000a2e <_IQR_HardDC>
 1000a26:	b0 20                	mov    $0x20,%al
 1000a28:	e6 20                	out    %al,$0x20
 1000a2a:	e6 a0                	out    %al,$0xa0
 1000a2c:	61                   	popa   
 1000a2d:	cf                   	iret   

01000a2e <_IQR_HardDC>:
 1000a2e:	55                   	push   %ebp
 1000a2f:	89 e5                	mov    %esp,%ebp
 1000a31:	83 ec 08             	sub    $0x8,%esp
 1000a34:	83 ec 0c             	sub    $0xc,%esp
 1000a37:	68 2c 61 00 01       	push   $0x100612c
 1000a3c:	e8 5e f8 ff ff       	call   100029f <printf>
 1000a41:	83 c4 10             	add    $0x10,%esp
 1000a44:	c9                   	leave  
 1000a45:	c3                   	ret    

01000a46 <IQR_Reserv4>:
 1000a46:	60                   	pusha  
 1000a47:	e8 08 00 00 00       	call   1000a54 <_IQR_Reserv4>
 1000a4c:	b0 20                	mov    $0x20,%al
 1000a4e:	e6 20                	out    %al,$0x20
 1000a50:	e6 a0                	out    %al,$0xa0
 1000a52:	61                   	popa   
 1000a53:	cf                   	iret   

01000a54 <_IQR_Reserv4>:
 1000a54:	55                   	push   %ebp
 1000a55:	89 e5                	mov    %esp,%ebp
 1000a57:	83 ec 08             	sub    $0x8,%esp
 1000a5a:	83 ec 0c             	sub    $0xc,%esp
 1000a5d:	68 38 61 00 01       	push   $0x1006138
 1000a62:	e8 38 f8 ff ff       	call   100029f <printf>
 1000a67:	83 c4 10             	add    $0x10,%esp
 1000a6a:	c9                   	leave  
 1000a6b:	c3                   	ret    

01000a6c <notche>:
 1000a6c:	e8 01 00 00 00       	call   1000a72 <_notche>
 1000a71:	cf                   	iret   

01000a72 <_notche>:
 1000a72:	55                   	push   %ebp
 1000a73:	89 e5                	mov    %esp,%ebp
 1000a75:	83 ec 08             	sub    $0x8,%esp
 1000a78:	83 ec 0c             	sub    $0xc,%esp
 1000a7b:	68 45 61 00 01       	push   $0x1006145
 1000a80:	e8 1a f8 ff ff       	call   100029f <printf>
 1000a85:	83 c4 10             	add    $0x10,%esp
 1000a88:	c9                   	leave  
 1000a89:	c3                   	ret    

01000a8a <ATA>:
 1000a8a:	e8 01 00 00 00       	call   1000a90 <_ATA>
 1000a8f:	cf                   	iret   

01000a90 <_ATA>:
 1000a90:	55                   	push   %ebp
 1000a91:	89 e5                	mov    %esp,%ebp
 1000a93:	5d                   	pop    %ebp
 1000a94:	c3                   	ret    

01000a95 <idt_gradeTask>:
 1000a95:	55                   	push   %ebp
 1000a96:	89 e5                	mov    %esp,%ebp
 1000a98:	83 ec 18             	sub    $0x18,%esp
 1000a9b:	8b 55 0c             	mov    0xc(%ebp),%edx
 1000a9e:	8b 45 10             	mov    0x10(%ebp),%eax
 1000aa1:	66 89 55 f4          	mov    %dx,-0xc(%ebp)
 1000aa5:	88 45 f0             	mov    %al,-0x10(%ebp)
 1000aa8:	81 7d 08 fe 00 00 00 	cmpl   $0xfe,0x8(%ebp)
 1000aaf:	7e 12                	jle    1000ac3 <idt_gradeTask+0x2e>
 1000ab1:	83 ec 0c             	sub    $0xc,%esp
 1000ab4:	68 5c 61 00 01       	push   $0x100615c
 1000ab9:	e8 e1 f7 ff ff       	call   100029f <printf>
 1000abe:	83 c4 10             	add    $0x10,%esp
 1000ac1:	eb 1d                	jmp    1000ae0 <idt_gradeTask+0x4b>
 1000ac3:	8b 45 08             	mov    0x8(%ebp),%eax
 1000ac6:	0f b6 55 f0          	movzbl -0x10(%ebp),%edx
 1000aca:	88 14 c5 45 ac 00 01 	mov    %dl,0x100ac45(,%eax,8)
 1000ad1:	8b 45 08             	mov    0x8(%ebp),%eax
 1000ad4:	0f b7 55 f4          	movzwl -0xc(%ebp),%edx
 1000ad8:	66 89 14 c5 42 ac 00 	mov    %dx,0x100ac42(,%eax,8)
 1000adf:	01 
 1000ae0:	c9                   	leave  
 1000ae1:	c3                   	ret    

01000ae2 <idt_grade>:
 1000ae2:	55                   	push   %ebp
 1000ae3:	89 e5                	mov    %esp,%ebp
 1000ae5:	83 ec 18             	sub    $0x18,%esp
 1000ae8:	8b 55 0c             	mov    0xc(%ebp),%edx
 1000aeb:	8b 45 14             	mov    0x14(%ebp),%eax
 1000aee:	66 89 55 f4          	mov    %dx,-0xc(%ebp)
 1000af2:	88 45 f0             	mov    %al,-0x10(%ebp)
 1000af5:	81 7d 08 fe 00 00 00 	cmpl   $0xfe,0x8(%ebp)
 1000afc:	7e 12                	jle    1000b10 <idt_grade+0x2e>
 1000afe:	83 ec 0c             	sub    $0xc,%esp
 1000b01:	68 5c 61 00 01       	push   $0x100615c
 1000b06:	e8 94 f7 ff ff       	call   100029f <printf>
 1000b0b:	83 c4 10             	add    $0x10,%esp
 1000b0e:	eb 40                	jmp    1000b50 <idt_grade+0x6e>
 1000b10:	8b 45 10             	mov    0x10(%ebp),%eax
 1000b13:	89 c2                	mov    %eax,%edx
 1000b15:	8b 45 08             	mov    0x8(%ebp),%eax
 1000b18:	66 89 14 c5 40 ac 00 	mov    %dx,0x100ac40(,%eax,8)
 1000b1f:	01 
 1000b20:	8b 45 10             	mov    0x10(%ebp),%eax
 1000b23:	c1 e8 10             	shr    $0x10,%eax
 1000b26:	89 c2                	mov    %eax,%edx
 1000b28:	8b 45 08             	mov    0x8(%ebp),%eax
 1000b2b:	66 89 14 c5 46 ac 00 	mov    %dx,0x100ac46(,%eax,8)
 1000b32:	01 
 1000b33:	8b 45 08             	mov    0x8(%ebp),%eax
 1000b36:	0f b6 55 f0          	movzbl -0x10(%ebp),%edx
 1000b3a:	88 14 c5 45 ac 00 01 	mov    %dl,0x100ac45(,%eax,8)
 1000b41:	8b 45 08             	mov    0x8(%ebp),%eax
 1000b44:	0f b7 55 f4          	movzwl -0xc(%ebp),%edx
 1000b48:	66 89 14 c5 42 ac 00 	mov    %dx,0x100ac42(,%eax,8)
 1000b4f:	01 
 1000b50:	c9                   	leave  
 1000b51:	c3                   	ret    

01000b52 <idt_install>:
 1000b52:	55                   	push   %ebp
 1000b53:	89 e5                	mov    %esp,%ebp
 1000b55:	83 ec 18             	sub    $0x18,%esp
 1000b58:	e8 c3 f4 ff ff       	call   1000020 <idt_closed>
 1000b5d:	83 ec 0c             	sub    $0xc,%esp
 1000b60:	68 88 61 00 01       	push   $0x1006188
 1000b65:	e8 35 f7 ff ff       	call   100029f <printf>
 1000b6a:	83 c4 10             	add    $0x10,%esp
 1000b6d:	c7 45 f4 00 00 00 00 	movl   $0x0,-0xc(%ebp)
 1000b74:	eb 1f                	jmp    1000b95 <idt_install+0x43>
 1000b76:	b8 6c 0a 00 01       	mov    $0x1000a6c,%eax
 1000b7b:	83 c0 24             	add    $0x24,%eax
 1000b7e:	68 8e 00 00 00       	push   $0x8e
 1000b83:	50                   	push   %eax
 1000b84:	6a 08                	push   $0x8
 1000b86:	ff 75 f4             	pushl  -0xc(%ebp)
 1000b89:	e8 54 ff ff ff       	call   1000ae2 <idt_grade>
 1000b8e:	83 c4 10             	add    $0x10,%esp
 1000b91:	83 45 f4 01          	addl   $0x1,-0xc(%ebp)
 1000b95:	81 7d f4 fe 00 00 00 	cmpl   $0xfe,-0xc(%ebp)
 1000b9c:	7e d8                	jle    1000b76 <idt_install+0x24>
 1000b9e:	66 c7 05 40 a6 00 01 	movw   $0x7f7,0x100a640
 1000ba5:	f7 07 
 1000ba7:	b8 40 ac 00 01       	mov    $0x100ac40,%eax
 1000bac:	a3 42 a6 00 01       	mov    %eax,0x100a642
 1000bb1:	b8 3e 05 00 01       	mov    $0x100053e,%eax
 1000bb6:	83 c0 24             	add    $0x24,%eax
 1000bb9:	68 8e 00 00 00       	push   $0x8e
 1000bbe:	50                   	push   %eax
 1000bbf:	6a 08                	push   $0x8
 1000bc1:	6a 00                	push   $0x0
 1000bc3:	e8 1a ff ff ff       	call   1000ae2 <idt_grade>
 1000bc8:	83 c4 10             	add    $0x10,%esp
 1000bcb:	b8 5e 05 00 01       	mov    $0x100055e,%eax
 1000bd0:	83 c0 24             	add    $0x24,%eax
 1000bd3:	68 8e 00 00 00       	push   $0x8e
 1000bd8:	50                   	push   %eax
 1000bd9:	6a 08                	push   $0x8
 1000bdb:	6a 01                	push   $0x1
 1000bdd:	e8 00 ff ff ff       	call   1000ae2 <idt_grade>
 1000be2:	83 c4 10             	add    $0x10,%esp
 1000be5:	b8 7e 05 00 01       	mov    $0x100057e,%eax
 1000bea:	83 c0 24             	add    $0x24,%eax
 1000bed:	68 8e 00 00 00       	push   $0x8e
 1000bf2:	50                   	push   %eax
 1000bf3:	6a 08                	push   $0x8
 1000bf5:	6a 02                	push   $0x2
 1000bf7:	e8 e6 fe ff ff       	call   1000ae2 <idt_grade>
 1000bfc:	83 c4 10             	add    $0x10,%esp
 1000bff:	b8 9e 05 00 01       	mov    $0x100059e,%eax
 1000c04:	83 c0 24             	add    $0x24,%eax
 1000c07:	68 8e 00 00 00       	push   $0x8e
 1000c0c:	50                   	push   %eax
 1000c0d:	6a 08                	push   $0x8
 1000c0f:	6a 03                	push   $0x3
 1000c11:	e8 cc fe ff ff       	call   1000ae2 <idt_grade>
 1000c16:	83 c4 10             	add    $0x10,%esp
 1000c19:	b8 be 05 00 01       	mov    $0x10005be,%eax
 1000c1e:	83 c0 24             	add    $0x24,%eax
 1000c21:	68 8e 00 00 00       	push   $0x8e
 1000c26:	50                   	push   %eax
 1000c27:	6a 08                	push   $0x8
 1000c29:	6a 04                	push   $0x4
 1000c2b:	e8 b2 fe ff ff       	call   1000ae2 <idt_grade>
 1000c30:	83 c4 10             	add    $0x10,%esp
 1000c33:	b8 de 05 00 01       	mov    $0x10005de,%eax
 1000c38:	83 c0 24             	add    $0x24,%eax
 1000c3b:	68 8e 00 00 00       	push   $0x8e
 1000c40:	50                   	push   %eax
 1000c41:	6a 08                	push   $0x8
 1000c43:	6a 05                	push   $0x5
 1000c45:	e8 98 fe ff ff       	call   1000ae2 <idt_grade>
 1000c4a:	83 c4 10             	add    $0x10,%esp
 1000c4d:	b8 fe 05 00 01       	mov    $0x10005fe,%eax
 1000c52:	83 c0 24             	add    $0x24,%eax
 1000c55:	68 8e 00 00 00       	push   $0x8e
 1000c5a:	50                   	push   %eax
 1000c5b:	6a 08                	push   $0x8
 1000c5d:	6a 06                	push   $0x6
 1000c5f:	e8 7e fe ff ff       	call   1000ae2 <idt_grade>
 1000c64:	83 c4 10             	add    $0x10,%esp
 1000c67:	b8 58 06 00 01       	mov    $0x1000658,%eax
 1000c6c:	83 c0 24             	add    $0x24,%eax
 1000c6f:	68 8e 00 00 00       	push   $0x8e
 1000c74:	50                   	push   %eax
 1000c75:	6a 08                	push   $0x8
 1000c77:	6a 07                	push   $0x7
 1000c79:	e8 64 fe ff ff       	call   1000ae2 <idt_grade>
 1000c7e:	83 c4 10             	add    $0x10,%esp
 1000c81:	b8 78 06 00 01       	mov    $0x1000678,%eax
 1000c86:	83 c0 24             	add    $0x24,%eax
 1000c89:	68 8e 00 00 00       	push   $0x8e
 1000c8e:	50                   	push   %eax
 1000c8f:	6a 08                	push   $0x8
 1000c91:	6a 08                	push   $0x8
 1000c93:	e8 4a fe ff ff       	call   1000ae2 <idt_grade>
 1000c98:	83 c4 10             	add    $0x10,%esp
 1000c9b:	b8 98 06 00 01       	mov    $0x1000698,%eax
 1000ca0:	83 c0 24             	add    $0x24,%eax
 1000ca3:	68 8e 00 00 00       	push   $0x8e
 1000ca8:	50                   	push   %eax
 1000ca9:	6a 08                	push   $0x8
 1000cab:	6a 09                	push   $0x9
 1000cad:	e8 30 fe ff ff       	call   1000ae2 <idt_grade>
 1000cb2:	83 c4 10             	add    $0x10,%esp
 1000cb5:	b8 b6 06 00 01       	mov    $0x10006b6,%eax
 1000cba:	83 c0 24             	add    $0x24,%eax
 1000cbd:	68 8e 00 00 00       	push   $0x8e
 1000cc2:	50                   	push   %eax
 1000cc3:	6a 08                	push   $0x8
 1000cc5:	6a 0a                	push   $0xa
 1000cc7:	e8 16 fe ff ff       	call   1000ae2 <idt_grade>
 1000ccc:	83 c4 10             	add    $0x10,%esp
 1000ccf:	b8 d6 06 00 01       	mov    $0x10006d6,%eax
 1000cd4:	83 c0 24             	add    $0x24,%eax
 1000cd7:	68 8e 00 00 00       	push   $0x8e
 1000cdc:	50                   	push   %eax
 1000cdd:	6a 08                	push   $0x8
 1000cdf:	6a 0b                	push   $0xb
 1000ce1:	e8 fc fd ff ff       	call   1000ae2 <idt_grade>
 1000ce6:	83 c4 10             	add    $0x10,%esp
 1000ce9:	b8 f6 06 00 01       	mov    $0x10006f6,%eax
 1000cee:	83 c0 24             	add    $0x24,%eax
 1000cf1:	68 8e 00 00 00       	push   $0x8e
 1000cf6:	50                   	push   %eax
 1000cf7:	6a 08                	push   $0x8
 1000cf9:	6a 0c                	push   $0xc
 1000cfb:	e8 e2 fd ff ff       	call   1000ae2 <idt_grade>
 1000d00:	83 c4 10             	add    $0x10,%esp
 1000d03:	b8 16 07 00 01       	mov    $0x1000716,%eax
 1000d08:	83 c0 24             	add    $0x24,%eax
 1000d0b:	68 8e 00 00 00       	push   $0x8e
 1000d10:	50                   	push   %eax
 1000d11:	6a 08                	push   $0x8
 1000d13:	6a 0d                	push   $0xd
 1000d15:	e8 c8 fd ff ff       	call   1000ae2 <idt_grade>
 1000d1a:	83 c4 10             	add    $0x10,%esp
 1000d1d:	b8 36 07 00 01       	mov    $0x1000736,%eax
 1000d22:	83 c0 24             	add    $0x24,%eax
 1000d25:	68 8e 00 00 00       	push   $0x8e
 1000d2a:	50                   	push   %eax
 1000d2b:	6a 08                	push   $0x8
 1000d2d:	6a 0e                	push   $0xe
 1000d2f:	e8 ae fd ff ff       	call   1000ae2 <idt_grade>
 1000d34:	83 c4 10             	add    $0x10,%esp
 1000d37:	b8 bf 07 00 01       	mov    $0x10007bf,%eax
 1000d3c:	83 c0 24             	add    $0x24,%eax
 1000d3f:	68 8e 00 00 00       	push   $0x8e
 1000d44:	50                   	push   %eax
 1000d45:	6a 08                	push   $0x8
 1000d47:	6a 10                	push   $0x10
 1000d49:	e8 94 fd ff ff       	call   1000ae2 <idt_grade>
 1000d4e:	83 c4 10             	add    $0x10,%esp
 1000d51:	b8 df 07 00 01       	mov    $0x10007df,%eax
 1000d56:	83 c0 24             	add    $0x24,%eax
 1000d59:	68 8e 00 00 00       	push   $0x8e
 1000d5e:	50                   	push   %eax
 1000d5f:	6a 08                	push   $0x8
 1000d61:	6a 11                	push   $0x11
 1000d63:	e8 7a fd ff ff       	call   1000ae2 <idt_grade>
 1000d68:	83 c4 10             	add    $0x10,%esp
 1000d6b:	b8 ff 07 00 01       	mov    $0x10007ff,%eax
 1000d70:	83 c0 24             	add    $0x24,%eax
 1000d73:	68 8e 00 00 00       	push   $0x8e
 1000d78:	50                   	push   %eax
 1000d79:	6a 08                	push   $0x8
 1000d7b:	6a 12                	push   $0x12
 1000d7d:	e8 60 fd ff ff       	call   1000ae2 <idt_grade>
 1000d82:	83 c4 10             	add    $0x10,%esp
 1000d85:	b8 1f 08 00 01       	mov    $0x100081f,%eax
 1000d8a:	83 c0 24             	add    $0x24,%eax
 1000d8d:	68 8e 00 00 00       	push   $0x8e
 1000d92:	50                   	push   %eax
 1000d93:	6a 08                	push   $0x8
 1000d95:	6a 13                	push   $0x13
 1000d97:	e8 46 fd ff ff       	call   1000ae2 <idt_grade>
 1000d9c:	83 c4 10             	add    $0x10,%esp
 1000d9f:	e8 7a 05 00 00       	call   100131e <IRQ_Install>
 1000da4:	e8 89 f7 ff ff       	call   1000532 <idt_flush>
 1000da9:	e8 78 f2 ff ff       	call   1000026 <idt_open>
 1000dae:	c9                   	leave  
 1000daf:	c3                   	ret    

01000db0 <check_CPUID>:
 1000db0:	55                   	push   %ebp
 1000db1:	89 e5                	mov    %esp,%ebp
 1000db3:	83 ec 10             	sub    $0x10,%esp
 1000db6:	c6 45 ff 00          	movb   $0x0,-0x1(%ebp)
 1000dba:	9c                   	pushf  
 1000dbb:	58                   	pop    %eax
 1000dbc:	89 d8                	mov    %ebx,%eax
 1000dbe:	35 00 00 20 00       	xor    $0x200000,%eax
 1000dc3:	50                   	push   %eax
 1000dc4:	9d                   	popf   
 1000dc5:	9c                   	pushf  
 1000dc6:	58                   	pop    %eax
 1000dc7:	31 d8                	xor    %ebx,%eax
 1000dc9:	74 02                	je     1000dcd <no_cpuid>
 1000dcb:	b0 01                	mov    $0x1,%al

01000dcd <no_cpuid>:
 1000dcd:	88 45 ff             	mov    %al,-0x1(%ebp)
 1000dd0:	80 7d ff 00          	cmpb   $0x0,-0x1(%ebp)
 1000dd4:	74 07                	je     1000ddd <no_cpuid+0x10>
 1000dd6:	c6 05 b6 9b 00 01 01 	movb   $0x1,0x1009bb6
 1000ddd:	c9                   	leave  
 1000dde:	c3                   	ret    

01000ddf <init_CPU>:
 1000ddf:	55                   	push   %ebp
 1000de0:	89 e5                	mov    %esp,%ebp
 1000de2:	81 ec 08 01 00 00    	sub    $0x108,%esp
 1000de8:	c7 45 eb 4d 69 63 72 	movl   $0x7263694d,-0x15(%ebp)
 1000def:	c7 45 ef 6f 73 6f 66 	movl   $0x666f736f,-0x11(%ebp)
 1000df6:	c7 45 f3 74 20 48 76 	movl   $0x76482074,-0xd(%ebp)
 1000dfd:	c6 45 f7 00          	movb   $0x0,-0x9(%ebp)
 1000e01:	c7 45 de 41 4d 44 69 	movl   $0x69444d41,-0x22(%ebp)
 1000e08:	c7 45 e2 73 62 65 74 	movl   $0x74656273,-0x1e(%ebp)
 1000e0f:	c7 45 e6 74 65 72 21 	movl   $0x21726574,-0x1a(%ebp)
 1000e16:	c6 45 ea 00          	movb   $0x0,-0x16(%ebp)
 1000e1a:	c7 45 d1 54 72 61 6e 	movl   $0x6e617254,-0x2f(%ebp)
 1000e21:	c7 45 d5 73 6d 65 74 	movl   $0x74656d73,-0x2b(%ebp)
 1000e28:	c7 45 d9 61 43 50 55 	movl   $0x55504361,-0x27(%ebp)
 1000e2f:	c6 45 dd 00          	movb   $0x0,-0x23(%ebp)
 1000e33:	c7 45 c4 56 49 41 20 	movl   $0x20414956,-0x3c(%ebp)
 1000e3a:	c7 45 c8 56 49 41 20 	movl   $0x20414956,-0x38(%ebp)
 1000e41:	c7 45 cc 56 49 41 20 	movl   $0x20414956,-0x34(%ebp)
 1000e48:	c6 45 d0 00          	movb   $0x0,-0x30(%ebp)
 1000e4c:	c7 45 b7 43 65 6e 74 	movl   $0x746e6543,-0x49(%ebp)
 1000e53:	c7 45 bb 61 75 72 48 	movl   $0x48727561,-0x45(%ebp)
 1000e5a:	c7 45 bf 61 75 6c 73 	movl   $0x736c7561,-0x41(%ebp)
 1000e61:	c6 45 c3 00          	movb   $0x0,-0x3d(%ebp)
 1000e65:	c7 45 ad 4b 56 4d 4b 	movl   $0x4b4d564b,-0x53(%ebp)
 1000e6c:	c7 45 b1 56 4d 4b 56 	movl   $0x564b4d56,-0x4f(%ebp)
 1000e73:	66 c7 45 b5 4d 00    	movw   $0x4d,-0x4b(%ebp)
 1000e79:	c7 45 a1 70 72 6c 20 	movl   $0x206c7270,-0x5f(%ebp)
 1000e80:	c7 45 a5 68 79 70 65 	movl   $0x65707968,-0x5b(%ebp)
 1000e87:	c7 45 a9 72 76 20 00 	movl   $0x207672,-0x57(%ebp)
 1000e8e:	c7 45 94 56 4d 77 61 	movl   $0x61774d56,-0x6c(%ebp)
 1000e95:	c7 45 98 72 65 56 4d 	movl   $0x4d566572,-0x68(%ebp)
 1000e9c:	c7 45 9c 77 61 72 65 	movl   $0x65726177,-0x64(%ebp)
 1000ea3:	c6 45 a0 00          	movb   $0x0,-0x60(%ebp)
 1000ea7:	c7 45 87 58 65 6e 56 	movl   $0x566e6558,-0x79(%ebp)
 1000eae:	c7 45 8b 4d 4d 58 65 	movl   $0x65584d4d,-0x75(%ebp)
 1000eb5:	c7 45 8f 6e 56 4d 4d 	movl   $0x4d4d566e,-0x71(%ebp)
 1000ebc:	c6 45 93 00          	movb   $0x0,-0x6d(%ebp)
 1000ec0:	c7 85 7a ff ff ff 47 	movl   $0x756e6547,-0x86(%ebp)
 1000ec7:	65 6e 75 
 1000eca:	c7 85 7e ff ff ff 69 	movl   $0x49656e69,-0x82(%ebp)
 1000ed1:	6e 65 49 
 1000ed4:	c7 45 82 6e 74 65 6c 	movl   $0x6c65746e,-0x7e(%ebp)
 1000edb:	c6 45 86 00          	movb   $0x0,-0x7a(%ebp)
 1000edf:	c7 85 6d ff ff ff 43 	movl   $0x69727943,-0x93(%ebp)
 1000ee6:	79 72 69 
 1000ee9:	c7 85 71 ff ff ff 78 	movl   $0x736e4978,-0x8f(%ebp)
 1000ef0:	49 6e 73 
 1000ef3:	c7 85 75 ff ff ff 74 	movl   $0x64616574,-0x8b(%ebp)
 1000efa:	65 61 64 
 1000efd:	c6 85 79 ff ff ff 00 	movb   $0x0,-0x87(%ebp)
 1000f04:	c7 85 60 ff ff ff 43 	movl   $0x746e6543,-0xa0(%ebp)
 1000f0b:	65 6e 74 
 1000f0e:	c7 85 64 ff ff ff 61 	movl   $0x48727561,-0x9c(%ebp)
 1000f15:	75 72 48 
 1000f18:	c7 85 68 ff ff ff 61 	movl   $0x736c7561,-0x98(%ebp)
 1000f1f:	75 6c 73 
 1000f22:	c6 85 6c ff ff ff 00 	movb   $0x0,-0x94(%ebp)
 1000f29:	c7 85 53 ff ff ff 41 	movl   $0x68747541,-0xad(%ebp)
 1000f30:	75 74 68 
 1000f33:	c7 85 57 ff ff ff 65 	movl   $0x69746e65,-0xa9(%ebp)
 1000f3a:	6e 74 69 
 1000f3d:	c7 85 5b ff ff ff 63 	movl   $0x444d4163,-0xa5(%ebp)
 1000f44:	41 4d 44 
 1000f47:	c6 85 5f ff ff ff 00 	movb   $0x0,-0xa1(%ebp)
 1000f4e:	c7 85 46 ff ff ff 53 	movl   $0x20536953,-0xba(%ebp)
 1000f55:	69 53 20 
 1000f58:	c7 85 4a ff ff ff 53 	movl   $0x20536953,-0xb6(%ebp)
 1000f5f:	69 53 20 
 1000f62:	c7 85 4e ff ff ff 53 	movl   $0x20536953,-0xb2(%ebp)
 1000f69:	69 53 20 
 1000f6c:	c6 85 52 ff ff ff 00 	movb   $0x0,-0xae(%ebp)
 1000f73:	c7 85 39 ff ff ff 4e 	movl   $0x4778654e,-0xc7(%ebp)
 1000f7a:	65 78 47 
 1000f7d:	c7 85 3d ff ff ff 65 	movl   $0x72446e65,-0xc3(%ebp)
 1000f84:	6e 44 72 
 1000f87:	c7 85 41 ff ff ff 69 	movl   $0x6e657669,-0xbf(%ebp)
 1000f8e:	76 65 6e 
 1000f91:	c6 85 45 ff ff ff 00 	movb   $0x0,-0xbb(%ebp)
 1000f98:	c7 85 2c ff ff ff 47 	movl   $0x756e6547,-0xd4(%ebp)
 1000f9f:	65 6e 75 
 1000fa2:	c7 85 30 ff ff ff 69 	movl   $0x54656e69,-0xd0(%ebp)
 1000fa9:	6e 65 54 
 1000fac:	c7 85 34 ff ff ff 4d 	movl   $0x3638784d,-0xcc(%ebp)
 1000fb3:	78 38 36 
 1000fb6:	c6 85 38 ff ff ff 00 	movb   $0x0,-0xc8(%ebp)
 1000fbd:	c7 85 1f ff ff ff 52 	movl   $0x65736952,-0xe1(%ebp)
 1000fc4:	69 73 65 
 1000fc7:	c7 85 23 ff ff ff 52 	movl   $0x65736952,-0xdd(%ebp)
 1000fce:	69 73 65 
 1000fd1:	c7 85 27 ff ff ff 52 	movl   $0x65736952,-0xd9(%ebp)
 1000fd8:	69 73 65 
 1000fdb:	c6 85 2b ff ff ff 00 	movb   $0x0,-0xd5(%ebp)
 1000fe2:	c7 85 12 ff ff ff 55 	movl   $0x20434d55,-0xee(%ebp)
 1000fe9:	4d 43 20 
 1000fec:	c7 85 16 ff ff ff 55 	movl   $0x20434d55,-0xea(%ebp)
 1000ff3:	4d 43 20 
 1000ff6:	c7 85 1a ff ff ff 55 	movl   $0x20434d55,-0xe6(%ebp)
 1000ffd:	4d 43 20 
 1001000:	c6 85 1e ff ff ff 00 	movb   $0x0,-0xe2(%ebp)
 1001007:	c7 85 05 ff ff ff 47 	movl   $0x646f6547,-0xfb(%ebp)
 100100e:	65 6f 64 
 1001011:	c7 85 09 ff ff ff 65 	movl   $0x79622065,-0xf7(%ebp)
 1001018:	20 62 79 
 100101b:	c7 85 0d ff ff ff 20 	movl   $0x43534e20,-0xf3(%ebp)
 1001022:	4e 53 43 
 1001025:	c6 85 11 ff ff ff 00 	movb   $0x0,-0xef(%ebp)
 100102c:	c7 85 f8 fe ff ff 56 	movl   $0x74726f56,-0x108(%ebp)
 1001033:	6f 72 74 
 1001036:	c7 85 fc fe ff ff 65 	movl   $0x36387865,-0x104(%ebp)
 100103d:	78 38 36 
 1001040:	c7 85 00 ff ff ff 20 	movl   $0x436f5320,-0x100(%ebp)
 1001047:	53 6f 43 
 100104a:	c6 85 04 ff ff ff 00 	movb   $0x0,-0xfc(%ebp)
 1001051:	e8 5a fd ff ff       	call   1000db0 <check_CPUID>
 1001056:	0f b6 05 b6 9b 00 01 	movzbl 0x1009bb6,%eax
 100105d:	84 c0                	test   %al,%al
 100105f:	0f 84 07 02 00 00    	je     100126c <__endInpelapic1+0xbd>
 1001065:	b8 00 00 00 00       	mov    $0x0,%eax
 100106a:	0f a2                	cpuid  
 100106c:	89 1d a4 9b 00 01    	mov    %ebx,0x1009ba4
 1001072:	89 15 a8 9b 00 01    	mov    %edx,0x1009ba8
 1001078:	89 0d ac 9b 00 01    	mov    %ecx,0x1009bac
 100107e:	a3 b1 9b 00 01       	mov    %eax,0x1009bb1
 1001083:	83 ec 08             	sub    $0x8,%esp
 1001086:	8d 85 53 ff ff ff    	lea    -0xad(%ebp),%eax
 100108c:	50                   	push   %eax
 100108d:	68 a4 9b 00 01       	push   $0x1009ba4
 1001092:	e8 d7 01 00 00       	call   100126e <strcmp>
 1001097:	83 c4 10             	add    $0x10,%esp
 100109a:	85 c0                	test   %eax,%eax
 100109c:	74 14                	je     10010b2 <__endInpelapic2+0x5>
 100109e:	b8 01 00 00 80       	mov    $0x80000001,%eax
 10010a3:	0f a2                	cpuid  
 10010a5:	0f ba e1 03          	bt     $0x3,%ecx
 10010a9:	73 02                	jae    10010ad <__endInpelapic2>
 10010ab:	b0 01                	mov    $0x1,%al

010010ad <__endInpelapic2>:
 10010ad:	a2 b5 9b 00 01       	mov    %al,0x1009bb5
 10010b2:	83 ec 08             	sub    $0x8,%esp
 10010b5:	8d 45 eb             	lea    -0x15(%ebp),%eax
 10010b8:	50                   	push   %eax
 10010b9:	68 a4 9b 00 01       	push   $0x1009ba4
 10010be:	e8 ab 01 00 00       	call   100126e <strcmp>
 10010c3:	83 c4 10             	add    $0x10,%esp
 10010c6:	83 ec 08             	sub    $0x8,%esp
 10010c9:	8d 45 de             	lea    -0x22(%ebp),%eax
 10010cc:	50                   	push   %eax
 10010cd:	68 a4 9b 00 01       	push   $0x1009ba4
 10010d2:	e8 97 01 00 00       	call   100126e <strcmp>
 10010d7:	83 c4 10             	add    $0x10,%esp
 10010da:	83 ec 08             	sub    $0x8,%esp
 10010dd:	8d 85 2c ff ff ff    	lea    -0xd4(%ebp),%eax
 10010e3:	50                   	push   %eax
 10010e4:	68 a4 9b 00 01       	push   $0x1009ba4
 10010e9:	e8 80 01 00 00       	call   100126e <strcmp>
 10010ee:	83 c4 10             	add    $0x10,%esp
 10010f1:	83 ec 08             	sub    $0x8,%esp
 10010f4:	8d 45 d1             	lea    -0x2f(%ebp),%eax
 10010f7:	50                   	push   %eax
 10010f8:	68 a4 9b 00 01       	push   $0x1009ba4
 10010fd:	e8 6c 01 00 00       	call   100126e <strcmp>
 1001102:	83 c4 10             	add    $0x10,%esp
 1001105:	83 ec 08             	sub    $0x8,%esp
 1001108:	8d 45 c4             	lea    -0x3c(%ebp),%eax
 100110b:	50                   	push   %eax
 100110c:	68 a4 9b 00 01       	push   $0x1009ba4
 1001111:	e8 58 01 00 00       	call   100126e <strcmp>
 1001116:	83 c4 10             	add    $0x10,%esp
 1001119:	83 ec 08             	sub    $0x8,%esp
 100111c:	8d 45 b7             	lea    -0x49(%ebp),%eax
 100111f:	50                   	push   %eax
 1001120:	68 a4 9b 00 01       	push   $0x1009ba4
 1001125:	e8 44 01 00 00       	call   100126e <strcmp>
 100112a:	83 c4 10             	add    $0x10,%esp
 100112d:	83 ec 08             	sub    $0x8,%esp
 1001130:	8d 45 ad             	lea    -0x53(%ebp),%eax
 1001133:	50                   	push   %eax
 1001134:	68 a4 9b 00 01       	push   $0x1009ba4
 1001139:	e8 30 01 00 00       	call   100126e <strcmp>
 100113e:	83 c4 10             	add    $0x10,%esp
 1001141:	83 ec 08             	sub    $0x8,%esp
 1001144:	8d 45 a1             	lea    -0x5f(%ebp),%eax
 1001147:	50                   	push   %eax
 1001148:	68 a4 9b 00 01       	push   $0x1009ba4
 100114d:	e8 1c 01 00 00       	call   100126e <strcmp>
 1001152:	83 c4 10             	add    $0x10,%esp
 1001155:	83 ec 08             	sub    $0x8,%esp
 1001158:	8d 45 94             	lea    -0x6c(%ebp),%eax
 100115b:	50                   	push   %eax
 100115c:	68 a4 9b 00 01       	push   $0x1009ba4
 1001161:	e8 08 01 00 00       	call   100126e <strcmp>
 1001166:	83 c4 10             	add    $0x10,%esp
 1001169:	83 ec 08             	sub    $0x8,%esp
 100116c:	8d 45 87             	lea    -0x79(%ebp),%eax
 100116f:	50                   	push   %eax
 1001170:	68 a4 9b 00 01       	push   $0x1009ba4
 1001175:	e8 f4 00 00 00       	call   100126e <strcmp>
 100117a:	83 c4 10             	add    $0x10,%esp
 100117d:	83 ec 08             	sub    $0x8,%esp
 1001180:	8d 85 7a ff ff ff    	lea    -0x86(%ebp),%eax
 1001186:	50                   	push   %eax
 1001187:	68 a4 9b 00 01       	push   $0x1009ba4
 100118c:	e8 dd 00 00 00       	call   100126e <strcmp>
 1001191:	83 c4 10             	add    $0x10,%esp
 1001194:	85 c0                	test   %eax,%eax
 1001196:	74 1c                	je     10011b4 <__endInpelapic1+0x5>
 1001198:	b8 01 00 00 00       	mov    $0x1,%eax
 100119d:	0f a2                	cpuid  
 100119f:	0f ba e2 09          	bt     $0x9,%edx
 10011a3:	73 02                	jae    10011a7 <__endInpelapic>
 10011a5:	b0 01                	mov    $0x1,%al

010011a7 <__endInpelapic>:
 10011a7:	0f ba e1 15          	bt     $0x15,%ecx
 10011ab:	73 02                	jae    10011af <__endInpelapic1>
 10011ad:	fe c0                	inc    %al

010011af <__endInpelapic1>:
 10011af:	a2 b5 9b 00 01       	mov    %al,0x1009bb5
 10011b4:	83 ec 08             	sub    $0x8,%esp
 10011b7:	8d 85 6d ff ff ff    	lea    -0x93(%ebp),%eax
 10011bd:	50                   	push   %eax
 10011be:	68 a4 9b 00 01       	push   $0x1009ba4
 10011c3:	e8 a6 00 00 00       	call   100126e <strcmp>
 10011c8:	83 c4 10             	add    $0x10,%esp
 10011cb:	83 ec 08             	sub    $0x8,%esp
 10011ce:	8d 85 60 ff ff ff    	lea    -0xa0(%ebp),%eax
 10011d4:	50                   	push   %eax
 10011d5:	68 a4 9b 00 01       	push   $0x1009ba4
 10011da:	e8 8f 00 00 00       	call   100126e <strcmp>
 10011df:	83 c4 10             	add    $0x10,%esp
 10011e2:	83 ec 08             	sub    $0x8,%esp
 10011e5:	8d 85 46 ff ff ff    	lea    -0xba(%ebp),%eax
 10011eb:	50                   	push   %eax
 10011ec:	68 a4 9b 00 01       	push   $0x1009ba4
 10011f1:	e8 78 00 00 00       	call   100126e <strcmp>
 10011f6:	83 c4 10             	add    $0x10,%esp
 10011f9:	83 ec 08             	sub    $0x8,%esp
 10011fc:	8d 85 39 ff ff ff    	lea    -0xc7(%ebp),%eax
 1001202:	50                   	push   %eax
 1001203:	68 a4 9b 00 01       	push   $0x1009ba4
 1001208:	e8 61 00 00 00       	call   100126e <strcmp>
 100120d:	83 c4 10             	add    $0x10,%esp
 1001210:	83 ec 08             	sub    $0x8,%esp
 1001213:	8d 85 1f ff ff ff    	lea    -0xe1(%ebp),%eax
 1001219:	50                   	push   %eax
 100121a:	68 a4 9b 00 01       	push   $0x1009ba4
 100121f:	e8 4a 00 00 00       	call   100126e <strcmp>
 1001224:	83 c4 10             	add    $0x10,%esp
 1001227:	83 ec 08             	sub    $0x8,%esp
 100122a:	8d 85 12 ff ff ff    	lea    -0xee(%ebp),%eax
 1001230:	50                   	push   %eax
 1001231:	68 a4 9b 00 01       	push   $0x1009ba4
 1001236:	e8 33 00 00 00       	call   100126e <strcmp>
 100123b:	83 c4 10             	add    $0x10,%esp
 100123e:	83 ec 08             	sub    $0x8,%esp
 1001241:	8d 85 05 ff ff ff    	lea    -0xfb(%ebp),%eax
 1001247:	50                   	push   %eax
 1001248:	68 a4 9b 00 01       	push   $0x1009ba4
 100124d:	e8 1c 00 00 00       	call   100126e <strcmp>
 1001252:	83 c4 10             	add    $0x10,%esp
 1001255:	83 ec 08             	sub    $0x8,%esp
 1001258:	8d 85 f8 fe ff ff    	lea    -0x108(%ebp),%eax
 100125e:	50                   	push   %eax
 100125f:	68 a4 9b 00 01       	push   $0x1009ba4
 1001264:	e8 05 00 00 00       	call   100126e <strcmp>
 1001269:	83 c4 10             	add    $0x10,%esp
 100126c:	c9                   	leave  
 100126d:	c3                   	ret    

0100126e <strcmp>:
 100126e:	55                   	push   %ebp
 100126f:	89 e5                	mov    %esp,%ebp
 1001271:	83 ec 10             	sub    $0x10,%esp
 1001274:	c7 45 fc 00 00 00 00 	movl   $0x0,-0x4(%ebp)
 100127b:	8b 55 fc             	mov    -0x4(%ebp),%edx
 100127e:	8b 45 08             	mov    0x8(%ebp),%eax
 1001281:	01 d0                	add    %edx,%eax
 1001283:	0f b6 10             	movzbl (%eax),%edx
 1001286:	8b 4d fc             	mov    -0x4(%ebp),%ecx
 1001289:	8b 45 0c             	mov    0xc(%ebp),%eax
 100128c:	01 c8                	add    %ecx,%eax
 100128e:	0f b6 00             	movzbl (%eax),%eax
 1001291:	38 c2                	cmp    %al,%dl
 1001293:	75 25                	jne    10012ba <strcmp+0x4c>
 1001295:	8b 55 fc             	mov    -0x4(%ebp),%edx
 1001298:	8b 45 0c             	mov    0xc(%ebp),%eax
 100129b:	01 d0                	add    %edx,%eax
 100129d:	0f b6 00             	movzbl (%eax),%eax
 10012a0:	84 c0                	test   %al,%al
 10012a2:	74 0f                	je     10012b3 <strcmp+0x45>
 10012a4:	8b 55 fc             	mov    -0x4(%ebp),%edx
 10012a7:	8b 45 08             	mov    0x8(%ebp),%eax
 10012aa:	01 d0                	add    %edx,%eax
 10012ac:	0f b6 00             	movzbl (%eax),%eax
 10012af:	84 c0                	test   %al,%al
 10012b1:	75 0f                	jne    10012c2 <strcmp+0x54>
 10012b3:	b8 01 00 00 00       	mov    $0x1,%eax
 10012b8:	eb 0e                	jmp    10012c8 <strcmp+0x5a>
 10012ba:	90                   	nop
 10012bb:	b8 00 00 00 00       	mov    $0x0,%eax
 10012c0:	eb 06                	jmp    10012c8 <strcmp+0x5a>
 10012c2:	83 45 fc 01          	addl   $0x1,-0x4(%ebp)
 10012c6:	eb b3                	jmp    100127b <strcmp+0xd>
 10012c8:	c9                   	leave  
 10012c9:	c3                   	ret    

010012ca <IRQ_Setup>:
 10012ca:	55                   	push   %ebp
 10012cb:	89 e5                	mov    %esp,%ebp
 10012cd:	83 ec 10             	sub    $0x10,%esp
 10012d0:	c6 45 ff 20          	movb   $0x20,-0x1(%ebp)
 10012d4:	0f b6 45 ff          	movzbl -0x1(%ebp),%eax
 10012d8:	83 c0 08             	add    $0x8,%eax
 10012db:	88 45 fe             	mov    %al,-0x2(%ebp)
 10012de:	0f b6 55 ff          	movzbl -0x1(%ebp),%edx
 10012e2:	0f b6 4d fe          	movzbl -0x2(%ebp),%ecx
 10012e6:	b0 11                	mov    $0x11,%al
 10012e8:	e6 20                	out    %al,$0x20
 10012ea:	88 d0                	mov    %dl,%al
 10012ec:	e6 21                	out    %al,$0x21
 10012ee:	b0 04                	mov    $0x4,%al
 10012f0:	e6 21                	out    %al,$0x21
 10012f2:	b0 01                	mov    $0x1,%al
 10012f4:	e6 21                	out    %al,$0x21
 10012f6:	b0 11                	mov    $0x11,%al
 10012f8:	e6 a0                	out    %al,$0xa0
 10012fa:	88 c8                	mov    %cl,%al
 10012fc:	e6 a1                	out    %al,$0xa1
 10012fe:	b0 02                	mov    $0x2,%al
 1001300:	e6 a1                	out    %al,$0xa1
 1001302:	b0 01                	mov    $0x1,%al
 1001304:	e6 a1                	out    %al,$0xa1
 1001306:	c9                   	leave  
 1001307:	c3                   	ret    

01001308 <IRQ_Open>:
 1001308:	55                   	push   %ebp
 1001309:	89 e5                	mov    %esp,%ebp
 100130b:	e4 70                	in     $0x70,%al
 100130d:	24 7f                	and    $0x7f,%al
 100130f:	e6 70                	out    %al,$0x70
 1001311:	5d                   	pop    %ebp
 1001312:	c3                   	ret    

01001313 <IRQ_Closed>:
 1001313:	55                   	push   %ebp
 1001314:	89 e5                	mov    %esp,%ebp
 1001316:	e4 70                	in     $0x70,%al
 1001318:	0c 80                	or     $0x80,%al
 100131a:	e6 70                	out    %al,$0x70
 100131c:	5d                   	pop    %ebp
 100131d:	c3                   	ret    

0100131e <IRQ_Install>:
 100131e:	55                   	push   %ebp
 100131f:	89 e5                	mov    %esp,%ebp
 1001321:	83 ec 08             	sub    $0x8,%esp
 1001324:	0f b6 05 b5 9b 00 01 	movzbl 0x1009bb5,%eax
 100132b:	84 c0                	test   %al,%al
 100132d:	0f 85 bc 01 00 00    	jne    10014ef <IRQ_Install+0x1d1>
 1001333:	83 ec 0c             	sub    $0xc,%esp
 1001336:	68 97 61 00 01       	push   $0x1006197
 100133b:	e8 5f ef ff ff       	call   100029f <printf>
 1001340:	83 c4 10             	add    $0x10,%esp
 1001343:	e8 cb ff ff ff       	call   1001313 <IRQ_Closed>
 1001348:	e8 7d ff ff ff       	call   10012ca <IRQ_Setup>
 100134d:	b8 3f 08 00 01       	mov    $0x100083f,%eax
 1001352:	83 c0 24             	add    $0x24,%eax
 1001355:	68 8e 00 00 00       	push   $0x8e
 100135a:	50                   	push   %eax
 100135b:	6a 08                	push   $0x8
 100135d:	6a 20                	push   $0x20
 100135f:	e8 7e f7 ff ff       	call   1000ae2 <idt_grade>
 1001364:	83 c4 10             	add    $0x10,%esp
 1001367:	b8 52 08 00 01       	mov    $0x1000852,%eax
 100136c:	83 c0 24             	add    $0x24,%eax
 100136f:	68 8e 00 00 00       	push   $0x8e
 1001374:	50                   	push   %eax
 1001375:	6a 08                	push   $0x8
 1001377:	6a 21                	push   $0x21
 1001379:	e8 64 f7 ff ff       	call   1000ae2 <idt_grade>
 100137e:	83 c4 10             	add    $0x10,%esp
 1001381:	b8 7a 08 00 01       	mov    $0x100087a,%eax
 1001386:	83 c0 24             	add    $0x24,%eax
 1001389:	68 8e 00 00 00       	push   $0x8e
 100138e:	50                   	push   %eax
 100138f:	6a 08                	push   $0x8
 1001391:	6a 22                	push   $0x22
 1001393:	e8 4a f7 ff ff       	call   1000ae2 <idt_grade>
 1001398:	83 c4 10             	add    $0x10,%esp
 100139b:	b8 8f 08 00 01       	mov    $0x100088f,%eax
 10013a0:	83 c0 24             	add    $0x24,%eax
 10013a3:	68 8e 00 00 00       	push   $0x8e
 10013a8:	50                   	push   %eax
 10013a9:	6a 08                	push   $0x8
 10013ab:	6a 23                	push   $0x23
 10013ad:	e8 30 f7 ff ff       	call   1000ae2 <idt_grade>
 10013b2:	83 c4 10             	add    $0x10,%esp
 10013b5:	b8 a4 08 00 01       	mov    $0x10008a4,%eax
 10013ba:	83 c0 24             	add    $0x24,%eax
 10013bd:	68 8e 00 00 00       	push   $0x8e
 10013c2:	50                   	push   %eax
 10013c3:	6a 08                	push   $0x8
 10013c5:	6a 24                	push   $0x24
 10013c7:	e8 16 f7 ff ff       	call   1000ae2 <idt_grade>
 10013cc:	83 c4 10             	add    $0x10,%esp
 10013cf:	b8 ca 08 00 01       	mov    $0x10008ca,%eax
 10013d4:	83 c0 24             	add    $0x24,%eax
 10013d7:	68 8e 00 00 00       	push   $0x8e
 10013dc:	50                   	push   %eax
 10013dd:	6a 08                	push   $0x8
 10013df:	6a 25                	push   $0x25
 10013e1:	e8 fc f6 ff ff       	call   1000ae2 <idt_grade>
 10013e6:	83 c4 10             	add    $0x10,%esp
 10013e9:	b8 f0 08 00 01       	mov    $0x10008f0,%eax
 10013ee:	83 c0 24             	add    $0x24,%eax
 10013f1:	68 8e 00 00 00       	push   $0x8e
 10013f6:	50                   	push   %eax
 10013f7:	6a 08                	push   $0x8
 10013f9:	6a 26                	push   $0x26
 10013fb:	e8 e2 f6 ff ff       	call   1000ae2 <idt_grade>
 1001400:	83 c4 10             	add    $0x10,%esp
 1001403:	b8 16 09 00 01       	mov    $0x1000916,%eax
 1001408:	83 c0 24             	add    $0x24,%eax
 100140b:	68 8e 00 00 00       	push   $0x8e
 1001410:	50                   	push   %eax
 1001411:	6a 08                	push   $0x8
 1001413:	6a 27                	push   $0x27
 1001415:	e8 c8 f6 ff ff       	call   1000ae2 <idt_grade>
 100141a:	83 c4 10             	add    $0x10,%esp
 100141d:	b8 3c 09 00 01       	mov    $0x100093c,%eax
 1001422:	83 c0 24             	add    $0x24,%eax
 1001425:	68 8e 00 00 00       	push   $0x8e
 100142a:	50                   	push   %eax
 100142b:	6a 08                	push   $0x8
 100142d:	6a 28                	push   $0x28
 100142f:	e8 ae f6 ff ff       	call   1000ae2 <idt_grade>
 1001434:	83 c4 10             	add    $0x10,%esp
 1001437:	b8 62 09 00 01       	mov    $0x1000962,%eax
 100143c:	83 c0 24             	add    $0x24,%eax
 100143f:	68 8e 00 00 00       	push   $0x8e
 1001444:	50                   	push   %eax
 1001445:	6a 08                	push   $0x8
 1001447:	6a 29                	push   $0x29
 1001449:	e8 94 f6 ff ff       	call   1000ae2 <idt_grade>
 100144e:	83 c4 10             	add    $0x10,%esp
 1001451:	b8 88 09 00 01       	mov    $0x1000988,%eax
 1001456:	83 c0 24             	add    $0x24,%eax
 1001459:	68 8e 00 00 00       	push   $0x8e
 100145e:	50                   	push   %eax
 100145f:	6a 08                	push   $0x8
 1001461:	6a 30                	push   $0x30
 1001463:	e8 7a f6 ff ff       	call   1000ae2 <idt_grade>
 1001468:	83 c4 10             	add    $0x10,%esp
 100146b:	b8 ae 09 00 01       	mov    $0x10009ae,%eax
 1001470:	83 c0 24             	add    $0x24,%eax
 1001473:	68 8e 00 00 00       	push   $0x8e
 1001478:	50                   	push   %eax
 1001479:	6a 08                	push   $0x8
 100147b:	6a 31                	push   $0x31
 100147d:	e8 60 f6 ff ff       	call   1000ae2 <idt_grade>
 1001482:	83 c4 10             	add    $0x10,%esp
 1001485:	b8 d4 09 00 01       	mov    $0x10009d4,%eax
 100148a:	83 c0 24             	add    $0x24,%eax
 100148d:	68 8e 00 00 00       	push   $0x8e
 1001492:	50                   	push   %eax
 1001493:	6a 08                	push   $0x8
 1001495:	6a 32                	push   $0x32
 1001497:	e8 46 f6 ff ff       	call   1000ae2 <idt_grade>
 100149c:	83 c4 10             	add    $0x10,%esp
 100149f:	b8 fa 09 00 01       	mov    $0x10009fa,%eax
 10014a4:	83 c0 24             	add    $0x24,%eax
 10014a7:	68 8e 00 00 00       	push   $0x8e
 10014ac:	50                   	push   %eax
 10014ad:	6a 08                	push   $0x8
 10014af:	6a 33                	push   $0x33
 10014b1:	e8 2c f6 ff ff       	call   1000ae2 <idt_grade>
 10014b6:	83 c4 10             	add    $0x10,%esp
 10014b9:	b8 20 0a 00 01       	mov    $0x1000a20,%eax
 10014be:	83 c0 24             	add    $0x24,%eax
 10014c1:	68 8e 00 00 00       	push   $0x8e
 10014c6:	50                   	push   %eax
 10014c7:	6a 08                	push   $0x8
 10014c9:	6a 34                	push   $0x34
 10014cb:	e8 12 f6 ff ff       	call   1000ae2 <idt_grade>
 10014d0:	83 c4 10             	add    $0x10,%esp
 10014d3:	b8 46 0a 00 01       	mov    $0x1000a46,%eax
 10014d8:	83 c0 24             	add    $0x24,%eax
 10014db:	68 8e 00 00 00       	push   $0x8e
 10014e0:	50                   	push   %eax
 10014e1:	6a 08                	push   $0x8
 10014e3:	6a 35                	push   $0x35
 10014e5:	e8 f8 f5 ff ff       	call   1000ae2 <idt_grade>
 10014ea:	83 c4 10             	add    $0x10,%esp
 10014ed:	eb 2d                	jmp    100151c <IRQ_Install+0x1fe>
 10014ef:	0f b6 05 b5 9b 00 01 	movzbl 0x1009bb5,%eax
 10014f6:	3c 02                	cmp    $0x2,%al
 10014f8:	75 12                	jne    100150c <IRQ_Install+0x1ee>
 10014fa:	83 ec 0c             	sub    $0xc,%esp
 10014fd:	68 a2 61 00 01       	push   $0x10061a2
 1001502:	e8 98 ed ff ff       	call   100029f <printf>
 1001507:	83 c4 10             	add    $0x10,%esp
 100150a:	eb 10                	jmp    100151c <IRQ_Install+0x1fe>
 100150c:	83 ec 0c             	sub    $0xc,%esp
 100150f:	68 b1 61 00 01       	push   $0x10061b1
 1001514:	e8 86 ed ff ff       	call   100029f <printf>
 1001519:	83 c4 10             	add    $0x10,%esp
 100151c:	c9                   	leave  
 100151d:	c3                   	ret    

0100151e <gdt_flush>:
 100151e:	55                   	push   %ebp
 100151f:	89 e5                	mov    %esp,%ebp
 1001521:	0f 01 15 d4 dd 00 01 	lgdtl  0x100ddd4
 1001528:	66 b8 10 00          	mov    $0x10,%ax
 100152c:	8e e8                	mov    %eax,%gs
 100152e:	8e c0                	mov    %eax,%es
 1001530:	8e e0                	mov    %eax,%fs
 1001532:	8e d0                	mov    %eax,%ss
 1001534:	8e d8                	mov    %eax,%ds
 1001536:	ea 3d 15 00 01 08 00 	ljmp   $0x8,$0x100153d

0100153d <fin>:
 100153d:	5d                   	pop    %ebp
 100153e:	c3                   	ret    

0100153f <tss_set_gate>:
 100153f:	55                   	push   %ebp
 1001540:	89 e5                	mov    %esp,%ebp
 1001542:	83 ec 04             	sub    $0x4,%esp
 1001545:	8b 45 14             	mov    0x14(%ebp),%eax
 1001548:	88 45 fc             	mov    %al,-0x4(%ebp)
 100154b:	8b 45 0c             	mov    0xc(%ebp),%eax
 100154e:	89 c2                	mov    %eax,%edx
 1001550:	8b 45 08             	mov    0x8(%ebp),%eax
 1001553:	66 89 14 c5 42 a2 00 	mov    %dx,0x100a242(,%eax,8)
 100155a:	01 
 100155b:	8b 45 0c             	mov    0xc(%ebp),%eax
 100155e:	c1 e8 10             	shr    $0x10,%eax
 1001561:	89 c2                	mov    %eax,%edx
 1001563:	8b 45 08             	mov    0x8(%ebp),%eax
 1001566:	88 14 c5 44 a2 00 01 	mov    %dl,0x100a244(,%eax,8)
 100156d:	8b 45 0c             	mov    0xc(%ebp),%eax
 1001570:	c1 e8 18             	shr    $0x18,%eax
 1001573:	89 c2                	mov    %eax,%edx
 1001575:	8b 45 08             	mov    0x8(%ebp),%eax
 1001578:	88 14 c5 47 a2 00 01 	mov    %dl,0x100a247(,%eax,8)
 100157f:	8b 45 10             	mov    0x10(%ebp),%eax
 1001582:	89 c2                	mov    %eax,%edx
 1001584:	8b 45 08             	mov    0x8(%ebp),%eax
 1001587:	66 89 14 c5 40 a2 00 	mov    %dx,0x100a240(,%eax,8)
 100158e:	01 
 100158f:	8b 45 10             	mov    0x10(%ebp),%eax
 1001592:	c1 e8 10             	shr    $0x10,%eax
 1001595:	89 c2                	mov    %eax,%edx
 1001597:	8b 45 08             	mov    0x8(%ebp),%eax
 100159a:	88 14 c5 46 a2 00 01 	mov    %dl,0x100a246(,%eax,8)
 10015a1:	8b 45 08             	mov    0x8(%ebp),%eax
 10015a4:	0f b6 55 fc          	movzbl -0x4(%ebp),%edx
 10015a8:	88 14 c5 45 a2 00 01 	mov    %dl,0x100a245(,%eax,8)
 10015af:	c9                   	leave  
 10015b0:	c3                   	ret    

010015b1 <gdt_set_gate>:
 10015b1:	55                   	push   %ebp
 10015b2:	89 e5                	mov    %esp,%ebp
 10015b4:	83 ec 08             	sub    $0x8,%esp
 10015b7:	8b 55 14             	mov    0x14(%ebp),%edx
 10015ba:	8b 45 18             	mov    0x18(%ebp),%eax
 10015bd:	88 55 fc             	mov    %dl,-0x4(%ebp)
 10015c0:	88 45 f8             	mov    %al,-0x8(%ebp)
 10015c3:	8b 45 0c             	mov    0xc(%ebp),%eax
 10015c6:	89 c2                	mov    %eax,%edx
 10015c8:	8b 45 08             	mov    0x8(%ebp),%eax
 10015cb:	66 89 14 c5 42 a2 00 	mov    %dx,0x100a242(,%eax,8)
 10015d2:	01 
 10015d3:	8b 45 0c             	mov    0xc(%ebp),%eax
 10015d6:	c1 e8 10             	shr    $0x10,%eax
 10015d9:	89 c2                	mov    %eax,%edx
 10015db:	8b 45 08             	mov    0x8(%ebp),%eax
 10015de:	88 14 c5 44 a2 00 01 	mov    %dl,0x100a244(,%eax,8)
 10015e5:	8b 45 0c             	mov    0xc(%ebp),%eax
 10015e8:	c1 e8 18             	shr    $0x18,%eax
 10015eb:	89 c2                	mov    %eax,%edx
 10015ed:	8b 45 08             	mov    0x8(%ebp),%eax
 10015f0:	88 14 c5 47 a2 00 01 	mov    %dl,0x100a247(,%eax,8)
 10015f7:	8b 45 10             	mov    0x10(%ebp),%eax
 10015fa:	89 c2                	mov    %eax,%edx
 10015fc:	8b 45 08             	mov    0x8(%ebp),%eax
 10015ff:	66 89 14 c5 40 a2 00 	mov    %dx,0x100a240(,%eax,8)
 1001606:	01 
 1001607:	8b 45 10             	mov    0x10(%ebp),%eax
 100160a:	c1 e8 10             	shr    $0x10,%eax
 100160d:	83 e0 0f             	and    $0xf,%eax
 1001610:	89 c2                	mov    %eax,%edx
 1001612:	8b 45 08             	mov    0x8(%ebp),%eax
 1001615:	88 14 c5 46 a2 00 01 	mov    %dl,0x100a246(,%eax,8)
 100161c:	8b 45 08             	mov    0x8(%ebp),%eax
 100161f:	0f b6 04 c5 46 a2 00 	movzbl 0x100a246(,%eax,8),%eax
 1001626:	01 
 1001627:	89 c2                	mov    %eax,%edx
 1001629:	0f b6 45 f8          	movzbl -0x8(%ebp),%eax
 100162d:	83 e0 f0             	and    $0xfffffff0,%eax
 1001630:	09 d0                	or     %edx,%eax
 1001632:	89 c2                	mov    %eax,%edx
 1001634:	8b 45 08             	mov    0x8(%ebp),%eax
 1001637:	88 14 c5 46 a2 00 01 	mov    %dl,0x100a246(,%eax,8)
 100163e:	8b 45 08             	mov    0x8(%ebp),%eax
 1001641:	0f b6 55 fc          	movzbl -0x4(%ebp),%edx
 1001645:	88 14 c5 45 a2 00 01 	mov    %dl,0x100a245(,%eax,8)
 100164c:	c9                   	leave  
 100164d:	c3                   	ret    

0100164e <gdt_install>:
 100164e:	55                   	push   %ebp
 100164f:	89 e5                	mov    %esp,%ebp
 1001651:	66 c7 05 d4 dd 00 01 	movw   $0x3ff,0x100ddd4
 1001658:	ff 03 
 100165a:	b8 40 a2 00 01       	mov    $0x100a240,%eax
 100165f:	a3 d6 dd 00 01       	mov    %eax,0x100ddd6
 1001664:	6a 00                	push   $0x0
 1001666:	6a 00                	push   $0x0
 1001668:	6a 00                	push   $0x0
 100166a:	6a 00                	push   $0x0
 100166c:	6a 00                	push   $0x0
 100166e:	e8 3e ff ff ff       	call   10015b1 <gdt_set_gate>
 1001673:	83 c4 14             	add    $0x14,%esp
 1001676:	68 cf 00 00 00       	push   $0xcf
 100167b:	68 9a 00 00 00       	push   $0x9a
 1001680:	6a ff                	push   $0xffffffff
 1001682:	6a 00                	push   $0x0
 1001684:	6a 01                	push   $0x1
 1001686:	e8 26 ff ff ff       	call   10015b1 <gdt_set_gate>
 100168b:	83 c4 14             	add    $0x14,%esp
 100168e:	68 cf 00 00 00       	push   $0xcf
 1001693:	68 92 00 00 00       	push   $0x92
 1001698:	6a ff                	push   $0xffffffff
 100169a:	6a 00                	push   $0x0
 100169c:	6a 02                	push   $0x2
 100169e:	e8 0e ff ff ff       	call   10015b1 <gdt_set_gate>
 10016a3:	83 c4 14             	add    $0x14,%esp
 10016a6:	e8 73 fe ff ff       	call   100151e <gdt_flush>
 10016ab:	c9                   	leave  
 10016ac:	c3                   	ret    

010016ad <MSC_init>:
 10016ad:	55                   	push   %ebp
 10016ae:	89 e5                	mov    %esp,%ebp
 10016b0:	83 ec 18             	sub    $0x18,%esp
 10016b3:	c7 45 f4 00 00 00 00 	movl   $0x0,-0xc(%ebp)
 10016ba:	81 65 08 00 ff ff ff 	andl   $0xffffff00,0x8(%ebp)
 10016c1:	8b 45 08             	mov    0x8(%ebp),%eax
 10016c4:	a3 00 9e 00 01       	mov    %eax,0x1009e00
 10016c9:	ff 75 08             	pushl  0x8(%ebp)
 10016cc:	68 f8 0c 00 00       	push   $0xcf8
 10016d1:	e8 a6 e9 ff ff       	call   100007c <OutEax>
 10016d6:	83 c4 08             	add    $0x8,%esp
 10016d9:	68 fc 0c 00 00       	push   $0xcfc
 10016de:	e8 49 e9 ff ff       	call   100002c <InEax>
 10016e3:	83 c4 04             	add    $0x4,%esp
 10016e6:	89 45 f4             	mov    %eax,-0xc(%ebp)
 10016e9:	8b 45 f4             	mov    -0xc(%ebp),%eax
 10016ec:	66 a3 c0 9d 00 01    	mov    %ax,0x1009dc0
 10016f2:	8b 45 f4             	mov    -0xc(%ebp),%eax
 10016f5:	c1 e8 10             	shr    $0x10,%eax
 10016f8:	66 a3 c2 9d 00 01    	mov    %ax,0x1009dc2
 10016fe:	8b 45 08             	mov    0x8(%ebp),%eax
 1001701:	83 c0 04             	add    $0x4,%eax
 1001704:	50                   	push   %eax
 1001705:	68 f8 0c 00 00       	push   $0xcf8
 100170a:	e8 6d e9 ff ff       	call   100007c <OutEax>
 100170f:	83 c4 08             	add    $0x8,%esp
 1001712:	68 fc 0c 00 00       	push   $0xcfc
 1001717:	e8 10 e9 ff ff       	call   100002c <InEax>
 100171c:	83 c4 04             	add    $0x4,%esp
 100171f:	89 45 f4             	mov    %eax,-0xc(%ebp)
 1001722:	8b 45 f4             	mov    -0xc(%ebp),%eax
 1001725:	66 a3 c4 9d 00 01    	mov    %ax,0x1009dc4
 100172b:	8b 45 f4             	mov    -0xc(%ebp),%eax
 100172e:	c1 e8 10             	shr    $0x10,%eax
 1001731:	66 a3 c6 9d 00 01    	mov    %ax,0x1009dc6
 1001737:	8b 45 08             	mov    0x8(%ebp),%eax
 100173a:	83 c0 08             	add    $0x8,%eax
 100173d:	50                   	push   %eax
 100173e:	68 f8 0c 00 00       	push   $0xcf8
 1001743:	e8 34 e9 ff ff       	call   100007c <OutEax>
 1001748:	83 c4 08             	add    $0x8,%esp
 100174b:	68 fc 0c 00 00       	push   $0xcfc
 1001750:	e8 d7 e8 ff ff       	call   100002c <InEax>
 1001755:	83 c4 04             	add    $0x4,%esp
 1001758:	89 45 f4             	mov    %eax,-0xc(%ebp)
 100175b:	8b 45 f4             	mov    -0xc(%ebp),%eax
 100175e:	a2 c8 9d 00 01       	mov    %al,0x1009dc8
 1001763:	8b 45 f4             	mov    -0xc(%ebp),%eax
 1001766:	c1 e8 08             	shr    $0x8,%eax
 1001769:	a2 c9 9d 00 01       	mov    %al,0x1009dc9
 100176e:	8b 45 f4             	mov    -0xc(%ebp),%eax
 1001771:	c1 e8 10             	shr    $0x10,%eax
 1001774:	a2 ca 9d 00 01       	mov    %al,0x1009dca
 1001779:	8b 45 f4             	mov    -0xc(%ebp),%eax
 100177c:	c1 e8 18             	shr    $0x18,%eax
 100177f:	a2 cb 9d 00 01       	mov    %al,0x1009dcb
 1001784:	8b 45 08             	mov    0x8(%ebp),%eax
 1001787:	83 c0 0c             	add    $0xc,%eax
 100178a:	50                   	push   %eax
 100178b:	68 f8 0c 00 00       	push   $0xcf8
 1001790:	e8 e7 e8 ff ff       	call   100007c <OutEax>
 1001795:	83 c4 08             	add    $0x8,%esp
 1001798:	68 fc 0c 00 00       	push   $0xcfc
 100179d:	e8 8a e8 ff ff       	call   100002c <InEax>
 10017a2:	83 c4 04             	add    $0x4,%esp
 10017a5:	89 45 f4             	mov    %eax,-0xc(%ebp)
 10017a8:	8b 45 f4             	mov    -0xc(%ebp),%eax
 10017ab:	a2 cc 9d 00 01       	mov    %al,0x1009dcc
 10017b0:	8b 45 f4             	mov    -0xc(%ebp),%eax
 10017b3:	c1 e8 08             	shr    $0x8,%eax
 10017b6:	a2 cd 9d 00 01       	mov    %al,0x1009dcd
 10017bb:	8b 45 f4             	mov    -0xc(%ebp),%eax
 10017be:	c1 e8 10             	shr    $0x10,%eax
 10017c1:	a2 ce 9d 00 01       	mov    %al,0x1009dce
 10017c6:	8b 45 f4             	mov    -0xc(%ebp),%eax
 10017c9:	c1 e8 18             	shr    $0x18,%eax
 10017cc:	a2 cf 9d 00 01       	mov    %al,0x1009dcf
 10017d1:	8b 45 08             	mov    0x8(%ebp),%eax
 10017d4:	83 c0 10             	add    $0x10,%eax
 10017d7:	50                   	push   %eax
 10017d8:	68 f8 0c 00 00       	push   $0xcf8
 10017dd:	e8 9a e8 ff ff       	call   100007c <OutEax>
 10017e2:	83 c4 08             	add    $0x8,%esp
 10017e5:	68 fc 0c 00 00       	push   $0xcfc
 10017ea:	e8 3d e8 ff ff       	call   100002c <InEax>
 10017ef:	83 c4 04             	add    $0x4,%esp
 10017f2:	a3 d0 9d 00 01       	mov    %eax,0x1009dd0
 10017f7:	8b 45 08             	mov    0x8(%ebp),%eax
 10017fa:	83 c0 14             	add    $0x14,%eax
 10017fd:	50                   	push   %eax
 10017fe:	68 f8 0c 00 00       	push   $0xcf8
 1001803:	e8 74 e8 ff ff       	call   100007c <OutEax>
 1001808:	83 c4 08             	add    $0x8,%esp
 100180b:	68 fc 0c 00 00       	push   $0xcfc
 1001810:	e8 17 e8 ff ff       	call   100002c <InEax>
 1001815:	83 c4 04             	add    $0x4,%esp
 1001818:	a3 d4 9d 00 01       	mov    %eax,0x1009dd4
 100181d:	8b 45 08             	mov    0x8(%ebp),%eax
 1001820:	83 c0 18             	add    $0x18,%eax
 1001823:	50                   	push   %eax
 1001824:	68 f8 0c 00 00       	push   $0xcf8
 1001829:	e8 4e e8 ff ff       	call   100007c <OutEax>
 100182e:	83 c4 08             	add    $0x8,%esp
 1001831:	68 fc 0c 00 00       	push   $0xcfc
 1001836:	e8 f1 e7 ff ff       	call   100002c <InEax>
 100183b:	83 c4 04             	add    $0x4,%esp
 100183e:	a3 d8 9d 00 01       	mov    %eax,0x1009dd8
 1001843:	8b 45 08             	mov    0x8(%ebp),%eax
 1001846:	83 c0 1c             	add    $0x1c,%eax
 1001849:	50                   	push   %eax
 100184a:	68 f8 0c 00 00       	push   $0xcf8
 100184f:	e8 28 e8 ff ff       	call   100007c <OutEax>
 1001854:	83 c4 08             	add    $0x8,%esp
 1001857:	68 fc 0c 00 00       	push   $0xcfc
 100185c:	e8 cb e7 ff ff       	call   100002c <InEax>
 1001861:	83 c4 04             	add    $0x4,%esp
 1001864:	a3 dc 9d 00 01       	mov    %eax,0x1009ddc
 1001869:	8b 45 08             	mov    0x8(%ebp),%eax
 100186c:	83 c0 20             	add    $0x20,%eax
 100186f:	50                   	push   %eax
 1001870:	68 f8 0c 00 00       	push   $0xcf8
 1001875:	e8 02 e8 ff ff       	call   100007c <OutEax>
 100187a:	83 c4 08             	add    $0x8,%esp
 100187d:	68 fc 0c 00 00       	push   $0xcfc
 1001882:	e8 a5 e7 ff ff       	call   100002c <InEax>
 1001887:	83 c4 04             	add    $0x4,%esp
 100188a:	a3 e0 9d 00 01       	mov    %eax,0x1009de0
 100188f:	8b 45 08             	mov    0x8(%ebp),%eax
 1001892:	83 c0 24             	add    $0x24,%eax
 1001895:	50                   	push   %eax
 1001896:	68 f8 0c 00 00       	push   $0xcf8
 100189b:	e8 dc e7 ff ff       	call   100007c <OutEax>
 10018a0:	83 c4 08             	add    $0x8,%esp
 10018a3:	68 fc 0c 00 00       	push   $0xcfc
 10018a8:	e8 7f e7 ff ff       	call   100002c <InEax>
 10018ad:	83 c4 04             	add    $0x4,%esp
 10018b0:	a3 e4 9d 00 01       	mov    %eax,0x1009de4
 10018b5:	8b 45 08             	mov    0x8(%ebp),%eax
 10018b8:	83 c0 28             	add    $0x28,%eax
 10018bb:	50                   	push   %eax
 10018bc:	68 f8 0c 00 00       	push   $0xcf8
 10018c1:	e8 b6 e7 ff ff       	call   100007c <OutEax>
 10018c6:	83 c4 08             	add    $0x8,%esp
 10018c9:	68 fc 0c 00 00       	push   $0xcfc
 10018ce:	e8 59 e7 ff ff       	call   100002c <InEax>
 10018d3:	83 c4 04             	add    $0x4,%esp
 10018d6:	a3 e8 9d 00 01       	mov    %eax,0x1009de8
 10018db:	8b 45 08             	mov    0x8(%ebp),%eax
 10018de:	83 c0 2c             	add    $0x2c,%eax
 10018e1:	50                   	push   %eax
 10018e2:	68 f8 0c 00 00       	push   $0xcf8
 10018e7:	e8 90 e7 ff ff       	call   100007c <OutEax>
 10018ec:	83 c4 08             	add    $0x8,%esp
 10018ef:	68 fc 0c 00 00       	push   $0xcfc
 10018f4:	e8 33 e7 ff ff       	call   100002c <InEax>
 10018f9:	83 c4 04             	add    $0x4,%esp
 10018fc:	89 45 f4             	mov    %eax,-0xc(%ebp)
 10018ff:	8b 45 f4             	mov    -0xc(%ebp),%eax
 1001902:	66 a3 ec 9d 00 01    	mov    %ax,0x1009dec
 1001908:	8b 45 f4             	mov    -0xc(%ebp),%eax
 100190b:	c1 e8 10             	shr    $0x10,%eax
 100190e:	66 a3 ee 9d 00 01    	mov    %ax,0x1009dee
 1001914:	8b 45 08             	mov    0x8(%ebp),%eax
 1001917:	83 c0 30             	add    $0x30,%eax
 100191a:	50                   	push   %eax
 100191b:	68 f8 0c 00 00       	push   $0xcf8
 1001920:	e8 57 e7 ff ff       	call   100007c <OutEax>
 1001925:	83 c4 08             	add    $0x8,%esp
 1001928:	68 fc 0c 00 00       	push   $0xcfc
 100192d:	e8 fa e6 ff ff       	call   100002c <InEax>
 1001932:	83 c4 04             	add    $0x4,%esp
 1001935:	a3 f0 9d 00 01       	mov    %eax,0x1009df0
 100193a:	8b 45 08             	mov    0x8(%ebp),%eax
 100193d:	83 c0 34             	add    $0x34,%eax
 1001940:	50                   	push   %eax
 1001941:	68 f8 0c 00 00       	push   $0xcf8
 1001946:	e8 31 e7 ff ff       	call   100007c <OutEax>
 100194b:	83 c4 08             	add    $0x8,%esp
 100194e:	68 fc 0c 00 00       	push   $0xcfc
 1001953:	e8 d4 e6 ff ff       	call   100002c <InEax>
 1001958:	83 c4 04             	add    $0x4,%esp
 100195b:	a2 f4 9d 00 01       	mov    %al,0x1009df4
 1001960:	8b 45 08             	mov    0x8(%ebp),%eax
 1001963:	83 c0 3c             	add    $0x3c,%eax
 1001966:	50                   	push   %eax
 1001967:	68 f8 0c 00 00       	push   $0xcf8
 100196c:	e8 0b e7 ff ff       	call   100007c <OutEax>
 1001971:	83 c4 08             	add    $0x8,%esp
 1001974:	68 fc 0c 00 00       	push   $0xcfc
 1001979:	e8 ae e6 ff ff       	call   100002c <InEax>
 100197e:	83 c4 04             	add    $0x4,%esp
 1001981:	89 45 f4             	mov    %eax,-0xc(%ebp)
 1001984:	8b 45 f4             	mov    -0xc(%ebp),%eax
 1001987:	a2 fc 9d 00 01       	mov    %al,0x1009dfc
 100198c:	8b 45 f4             	mov    -0xc(%ebp),%eax
 100198f:	c1 e8 08             	shr    $0x8,%eax
 1001992:	a2 fd 9d 00 01       	mov    %al,0x1009dfd
 1001997:	8b 45 f4             	mov    -0xc(%ebp),%eax
 100199a:	c1 e8 10             	shr    $0x10,%eax
 100199d:	a2 fe 9d 00 01       	mov    %al,0x1009dfe
 10019a2:	8b 45 f4             	mov    -0xc(%ebp),%eax
 10019a5:	c1 e8 18             	shr    $0x18,%eax
 10019a8:	a2 ff 9d 00 01       	mov    %al,0x1009dff
 10019ad:	83 7d f4 ff          	cmpl   $0xffffffff,-0xc(%ebp)
 10019b1:	75 1a                	jne    10019cd <MSC_init+0x320>
 10019b3:	83 ec 0c             	sub    $0xc,%esp
 10019b6:	68 bd 61 00 01       	push   $0x10061bd
 10019bb:	e8 df e8 ff ff       	call   100029f <printf>
 10019c0:	83 c4 10             	add    $0x10,%esp
 10019c3:	b8 01 00 00 00       	mov    $0x1,%eax
 10019c8:	e9 11 02 00 00       	jmp    1001bde <MSC_init+0x531>
 10019cd:	83 45 08 08          	addl   $0x8,0x8(%ebp)
 10019d1:	83 ec 08             	sub    $0x8,%esp
 10019d4:	ff 75 08             	pushl  0x8(%ebp)
 10019d7:	68 f8 0c 00 00       	push   $0xcf8
 10019dc:	e8 9b e6 ff ff       	call   100007c <OutEax>
 10019e1:	83 c4 10             	add    $0x10,%esp
 10019e4:	83 ec 0c             	sub    $0xc,%esp
 10019e7:	68 fc 0c 00 00       	push   $0xcfc
 10019ec:	e8 3b e6 ff ff       	call   100002c <InEax>
 10019f1:	83 c4 10             	add    $0x10,%esp
 10019f4:	89 45 f4             	mov    %eax,-0xc(%ebp)
 10019f7:	8b 45 f4             	mov    -0xc(%ebp),%eax
 10019fa:	c1 e8 10             	shr    $0x10,%eax
 10019fd:	0f b6 c0             	movzbl %al,%eax
 1001a00:	83 f8 04             	cmp    $0x4,%eax
 1001a03:	0f 84 ec 00 00 00    	je     1001af5 <MSC_init+0x448>
 1001a09:	83 f8 04             	cmp    $0x4,%eax
 1001a0c:	77 21                	ja     1001a2f <MSC_init+0x382>
 1001a0e:	83 f8 01             	cmp    $0x1,%eax
 1001a11:	74 7c                	je     1001a8f <MSC_init+0x3e2>
 1001a13:	83 f8 01             	cmp    $0x1,%eax
 1001a16:	72 55                	jb     1001a6d <MSC_init+0x3c0>
 1001a18:	83 f8 02             	cmp    $0x2,%eax
 1001a1b:	0f 84 90 00 00 00    	je     1001ab1 <MSC_init+0x404>
 1001a21:	83 f8 03             	cmp    $0x3,%eax
 1001a24:	0f 84 a9 00 00 00    	je     1001ad3 <MSC_init+0x426>
 1001a2a:	e9 89 01 00 00       	jmp    1001bb8 <MSC_init+0x50b>
 1001a2f:	83 f8 07             	cmp    $0x7,%eax
 1001a32:	0f 84 20 01 00 00    	je     1001b58 <MSC_init+0x4ab>
 1001a38:	83 f8 07             	cmp    $0x7,%eax
 1001a3b:	77 17                	ja     1001a54 <MSC_init+0x3a7>
 1001a3d:	83 f8 05             	cmp    $0x5,%eax
 1001a40:	0f 84 d1 00 00 00    	je     1001b17 <MSC_init+0x46a>
 1001a46:	83 f8 06             	cmp    $0x6,%eax
 1001a49:	0f 84 ea 00 00 00    	je     1001b39 <MSC_init+0x48c>
 1001a4f:	e9 64 01 00 00       	jmp    1001bb8 <MSC_init+0x50b>
 1001a54:	83 f8 08             	cmp    $0x8,%eax
 1001a57:	0f 84 1a 01 00 00    	je     1001b77 <MSC_init+0x4ca>
 1001a5d:	3d 80 00 00 00       	cmp    $0x80,%eax
 1001a62:	0f 84 2e 01 00 00    	je     1001b96 <MSC_init+0x4e9>
 1001a68:	e9 4b 01 00 00       	jmp    1001bb8 <MSC_init+0x50b>
 1001a6d:	83 ec 0c             	sub    $0xc,%esp
 1001a70:	68 d0 61 00 01       	push   $0x10061d0
 1001a75:	e8 25 e8 ff ff       	call   100029f <printf>
 1001a7a:	83 c4 10             	add    $0x10,%esp
 1001a7d:	83 ec 0c             	sub    $0xc,%esp
 1001a80:	6a 00                	push   $0x0
 1001a82:	e8 d2 0d 00 00       	call   1002859 <HDDinit>
 1001a87:	83 c4 10             	add    $0x10,%esp
 1001a8a:	e9 3a 01 00 00       	jmp    1001bc9 <MSC_init+0x51c>
 1001a8f:	83 ec 0c             	sub    $0xc,%esp
 1001a92:	68 d8 61 00 01       	push   $0x10061d8
 1001a97:	e8 03 e8 ff ff       	call   100029f <printf>
 1001a9c:	83 c4 10             	add    $0x10,%esp
 1001a9f:	83 ec 0c             	sub    $0xc,%esp
 1001aa2:	6a 01                	push   $0x1
 1001aa4:	e8 b0 0d 00 00       	call   1002859 <HDDinit>
 1001aa9:	83 c4 10             	add    $0x10,%esp
 1001aac:	e9 18 01 00 00       	jmp    1001bc9 <MSC_init+0x51c>
 1001ab1:	83 ec 0c             	sub    $0xc,%esp
 1001ab4:	68 df 61 00 01       	push   $0x10061df
 1001ab9:	e8 e1 e7 ff ff       	call   100029f <printf>
 1001abe:	83 c4 10             	add    $0x10,%esp
 1001ac1:	83 ec 0c             	sub    $0xc,%esp
 1001ac4:	6a 02                	push   $0x2
 1001ac6:	e8 8e 0d 00 00       	call   1002859 <HDDinit>
 1001acb:	83 c4 10             	add    $0x10,%esp
 1001ace:	e9 f6 00 00 00       	jmp    1001bc9 <MSC_init+0x51c>
 1001ad3:	83 ec 0c             	sub    $0xc,%esp
 1001ad6:	68 ee 61 00 01       	push   $0x10061ee
 1001adb:	e8 bf e7 ff ff       	call   100029f <printf>
 1001ae0:	83 c4 10             	add    $0x10,%esp
 1001ae3:	83 ec 0c             	sub    $0xc,%esp
 1001ae6:	6a 03                	push   $0x3
 1001ae8:	e8 6c 0d 00 00       	call   1002859 <HDDinit>
 1001aed:	83 c4 10             	add    $0x10,%esp
 1001af0:	e9 d4 00 00 00       	jmp    1001bc9 <MSC_init+0x51c>
 1001af5:	83 ec 0c             	sub    $0xc,%esp
 1001af8:	68 f9 61 00 01       	push   $0x10061f9
 1001afd:	e8 9d e7 ff ff       	call   100029f <printf>
 1001b02:	83 c4 10             	add    $0x10,%esp
 1001b05:	83 ec 0c             	sub    $0xc,%esp
 1001b08:	6a 04                	push   $0x4
 1001b0a:	e8 4a 0d 00 00       	call   1002859 <HDDinit>
 1001b0f:	83 c4 10             	add    $0x10,%esp
 1001b12:	e9 b2 00 00 00       	jmp    1001bc9 <MSC_init+0x51c>
 1001b17:	83 ec 0c             	sub    $0xc,%esp
 1001b1a:	68 05 62 00 01       	push   $0x1006205
 1001b1f:	e8 7b e7 ff ff       	call   100029f <printf>
 1001b24:	83 c4 10             	add    $0x10,%esp
 1001b27:	83 ec 0c             	sub    $0xc,%esp
 1001b2a:	6a 05                	push   $0x5
 1001b2c:	e8 28 0d 00 00       	call   1002859 <HDDinit>
 1001b31:	83 c4 10             	add    $0x10,%esp
 1001b34:	e9 90 00 00 00       	jmp    1001bc9 <MSC_init+0x51c>
 1001b39:	83 ec 0c             	sub    $0xc,%esp
 1001b3c:	68 0c 62 00 01       	push   $0x100620c
 1001b41:	e8 59 e7 ff ff       	call   100029f <printf>
 1001b46:	83 c4 10             	add    $0x10,%esp
 1001b49:	83 ec 0c             	sub    $0xc,%esp
 1001b4c:	6a 06                	push   $0x6
 1001b4e:	e8 06 0d 00 00       	call   1002859 <HDDinit>
 1001b53:	83 c4 10             	add    $0x10,%esp
 1001b56:	eb 71                	jmp    1001bc9 <MSC_init+0x51c>
 1001b58:	83 ec 0c             	sub    $0xc,%esp
 1001b5b:	68 14 62 00 01       	push   $0x1006214
 1001b60:	e8 3a e7 ff ff       	call   100029f <printf>
 1001b65:	83 c4 10             	add    $0x10,%esp
 1001b68:	83 ec 0c             	sub    $0xc,%esp
 1001b6b:	6a 07                	push   $0x7
 1001b6d:	e8 e7 0c 00 00       	call   1002859 <HDDinit>
 1001b72:	83 c4 10             	add    $0x10,%esp
 1001b75:	eb 52                	jmp    1001bc9 <MSC_init+0x51c>
 1001b77:	83 ec 0c             	sub    $0xc,%esp
 1001b7a:	68 2c 62 00 01       	push   $0x100622c
 1001b7f:	e8 1b e7 ff ff       	call   100029f <printf>
 1001b84:	83 c4 10             	add    $0x10,%esp
 1001b87:	83 ec 0c             	sub    $0xc,%esp
 1001b8a:	6a 08                	push   $0x8
 1001b8c:	e8 c8 0c 00 00       	call   1002859 <HDDinit>
 1001b91:	83 c4 10             	add    $0x10,%esp
 1001b94:	eb 33                	jmp    1001bc9 <MSC_init+0x51c>
 1001b96:	83 ec 0c             	sub    $0xc,%esp
 1001b99:	68 43 62 00 01       	push   $0x1006243
 1001b9e:	e8 fc e6 ff ff       	call   100029f <printf>
 1001ba3:	83 c4 10             	add    $0x10,%esp
 1001ba6:	83 ec 0c             	sub    $0xc,%esp
 1001ba9:	68 80 00 00 00       	push   $0x80
 1001bae:	e8 a6 0c 00 00       	call   1002859 <HDDinit>
 1001bb3:	83 c4 10             	add    $0x10,%esp
 1001bb6:	eb 11                	jmp    1001bc9 <MSC_init+0x51c>
 1001bb8:	83 ec 0c             	sub    $0xc,%esp
 1001bbb:	68 53 62 00 01       	push   $0x1006253
 1001bc0:	e8 da e6 ff ff       	call   100029f <printf>
 1001bc5:	83 c4 10             	add    $0x10,%esp
 1001bc8:	90                   	nop
 1001bc9:	83 ec 0c             	sub    $0xc,%esp
 1001bcc:	68 6e 62 00 01       	push   $0x100626e
 1001bd1:	e8 c9 e6 ff ff       	call   100029f <printf>
 1001bd6:	83 c4 10             	add    $0x10,%esp
 1001bd9:	b8 00 00 00 00       	mov    $0x0,%eax
 1001bde:	c9                   	leave  
 1001bdf:	c3                   	ret    

01001be0 <init_buspci>:
 1001be0:	55                   	push   %ebp
 1001be1:	89 e5                	mov    %esp,%ebp
 1001be3:	83 ec 28             	sub    $0x28,%esp
 1001be6:	c7 45 e8 00 00 00 00 	movl   $0x0,-0x18(%ebp)
 1001bed:	c7 45 f4 00 00 00 00 	movl   $0x0,-0xc(%ebp)
 1001bf4:	e9 cf 04 00 00       	jmp    10020c8 <init_buspci+0x4e8>
 1001bf9:	c7 45 f0 00 00 00 00 	movl   $0x0,-0x10(%ebp)
 1001c00:	e9 b5 04 00 00       	jmp    10020ba <init_buspci+0x4da>
 1001c05:	c6 45 ef 00          	movb   $0x0,-0x11(%ebp)
 1001c09:	e9 9e 04 00 00       	jmp    10020ac <init_buspci+0x4cc>
 1001c0e:	0f b6 45 ef          	movzbl -0x11(%ebp),%eax
 1001c12:	c1 e0 08             	shl    $0x8,%eax
 1001c15:	89 c2                	mov    %eax,%edx
 1001c17:	8b 45 f0             	mov    -0x10(%ebp),%eax
 1001c1a:	c1 e0 0b             	shl    $0xb,%eax
 1001c1d:	01 c2                	add    %eax,%edx
 1001c1f:	8b 45 f4             	mov    -0xc(%ebp),%eax
 1001c22:	c1 e0 10             	shl    $0x10,%eax
 1001c25:	01 d0                	add    %edx,%eax
 1001c27:	05 00 00 00 80       	add    $0x80000000,%eax
 1001c2c:	89 45 e4             	mov    %eax,-0x1c(%ebp)
 1001c2f:	ff 75 e4             	pushl  -0x1c(%ebp)
 1001c32:	68 f8 0c 00 00       	push   $0xcf8
 1001c37:	e8 40 e4 ff ff       	call   100007c <OutEax>
 1001c3c:	83 c4 08             	add    $0x8,%esp
 1001c3f:	68 fc 0c 00 00       	push   $0xcfc
 1001c44:	e8 e3 e3 ff ff       	call   100002c <InEax>
 1001c49:	83 c4 04             	add    $0x4,%esp
 1001c4c:	89 45 e8             	mov    %eax,-0x18(%ebp)
 1001c4f:	83 7d e8 ff          	cmpl   $0xffffffff,-0x18(%ebp)
 1001c53:	0f 84 49 04 00 00    	je     10020a2 <init_buspci+0x4c2>
 1001c59:	83 ec 0c             	sub    $0xc,%esp
 1001c5c:	68 6e 62 00 01       	push   $0x100626e
 1001c61:	e8 39 e6 ff ff       	call   100029f <printf>
 1001c66:	83 c4 10             	add    $0x10,%esp
 1001c69:	8b 45 f4             	mov    -0xc(%ebp),%eax
 1001c6c:	c1 e0 18             	shl    $0x18,%eax
 1001c6f:	83 ec 08             	sub    $0x8,%esp
 1001c72:	6a 02                	push   $0x2
 1001c74:	50                   	push   %eax
 1001c75:	e8 59 e5 ff ff       	call   10001d3 <HexInAsciiSz>
 1001c7a:	83 c4 10             	add    $0x10,%esp
 1001c7d:	83 ec 0c             	sub    $0xc,%esp
 1001c80:	68 70 62 00 01       	push   $0x1006270
 1001c85:	e8 15 e6 ff ff       	call   100029f <printf>
 1001c8a:	83 c4 10             	add    $0x10,%esp
 1001c8d:	8b 45 f0             	mov    -0x10(%ebp),%eax
 1001c90:	c1 e0 18             	shl    $0x18,%eax
 1001c93:	83 ec 08             	sub    $0x8,%esp
 1001c96:	6a 02                	push   $0x2
 1001c98:	50                   	push   %eax
 1001c99:	e8 35 e5 ff ff       	call   10001d3 <HexInAsciiSz>
 1001c9e:	83 c4 10             	add    $0x10,%esp
 1001ca1:	83 ec 0c             	sub    $0xc,%esp
 1001ca4:	68 70 62 00 01       	push   $0x1006270
 1001ca9:	e8 f1 e5 ff ff       	call   100029f <printf>
 1001cae:	83 c4 10             	add    $0x10,%esp
 1001cb1:	0f b6 45 ef          	movzbl -0x11(%ebp),%eax
 1001cb5:	c1 e0 18             	shl    $0x18,%eax
 1001cb8:	83 ec 08             	sub    $0x8,%esp
 1001cbb:	6a 02                	push   $0x2
 1001cbd:	50                   	push   %eax
 1001cbe:	e8 10 e5 ff ff       	call   10001d3 <HexInAsciiSz>
 1001cc3:	83 c4 10             	add    $0x10,%esp
 1001cc6:	83 ec 0c             	sub    $0xc,%esp
 1001cc9:	68 70 62 00 01       	push   $0x1006270
 1001cce:	e8 cc e5 ff ff       	call   100029f <printf>
 1001cd3:	83 c4 10             	add    $0x10,%esp
 1001cd6:	8b 45 e8             	mov    -0x18(%ebp),%eax
 1001cd9:	c1 e0 10             	shl    $0x10,%eax
 1001cdc:	83 ec 08             	sub    $0x8,%esp
 1001cdf:	6a 04                	push   $0x4
 1001ce1:	50                   	push   %eax
 1001ce2:	e8 ec e4 ff ff       	call   10001d3 <HexInAsciiSz>
 1001ce7:	83 c4 10             	add    $0x10,%esp
 1001cea:	83 ec 0c             	sub    $0xc,%esp
 1001ced:	68 70 62 00 01       	push   $0x1006270
 1001cf2:	e8 a8 e5 ff ff       	call   100029f <printf>
 1001cf7:	83 c4 10             	add    $0x10,%esp
 1001cfa:	8b 45 e8             	mov    -0x18(%ebp),%eax
 1001cfd:	83 ec 08             	sub    $0x8,%esp
 1001d00:	6a 04                	push   $0x4
 1001d02:	50                   	push   %eax
 1001d03:	e8 cb e4 ff ff       	call   10001d3 <HexInAsciiSz>
 1001d08:	83 c4 10             	add    $0x10,%esp
 1001d0b:	8b 45 e8             	mov    -0x18(%ebp),%eax
 1001d0e:	0f b7 c0             	movzwl %ax,%eax
 1001d11:	3d 43 51 00 00       	cmp    $0x5143,%eax
 1001d16:	74 44                	je     1001d5c <init_buspci+0x17c>
 1001d18:	3d 43 51 00 00       	cmp    $0x5143,%eax
 1001d1d:	77 09                	ja     1001d28 <init_buspci+0x148>
 1001d1f:	3d 13 10 00 00       	cmp    $0x1013,%eax
 1001d24:	74 24                	je     1001d4a <init_buspci+0x16a>
 1001d26:	eb 58                	jmp    1001d80 <init_buspci+0x1a0>
 1001d28:	3d 86 80 00 00       	cmp    $0x8086,%eax
 1001d2d:	74 09                	je     1001d38 <init_buspci+0x158>
 1001d2f:	3d 87 80 00 00       	cmp    $0x8087,%eax
 1001d34:	74 38                	je     1001d6e <init_buspci+0x18e>
 1001d36:	eb 48                	jmp    1001d80 <init_buspci+0x1a0>
 1001d38:	83 ec 0c             	sub    $0xc,%esp
 1001d3b:	68 72 62 00 01       	push   $0x1006272
 1001d40:	e8 5a e5 ff ff       	call   100029f <printf>
 1001d45:	83 c4 10             	add    $0x10,%esp
 1001d48:	eb 47                	jmp    1001d91 <init_buspci+0x1b1>
 1001d4a:	83 ec 0c             	sub    $0xc,%esp
 1001d4d:	68 88 62 00 01       	push   $0x1006288
 1001d52:	e8 48 e5 ff ff       	call   100029f <printf>
 1001d57:	83 c4 10             	add    $0x10,%esp
 1001d5a:	eb 35                	jmp    1001d91 <init_buspci+0x1b1>
 1001d5c:	83 ec 0c             	sub    $0xc,%esp
 1001d5f:	68 a1 62 00 01       	push   $0x10062a1
 1001d64:	e8 36 e5 ff ff       	call   100029f <printf>
 1001d69:	83 c4 10             	add    $0x10,%esp
 1001d6c:	eb 23                	jmp    1001d91 <init_buspci+0x1b1>
 1001d6e:	83 ec 0c             	sub    $0xc,%esp
 1001d71:	68 b7 62 00 01       	push   $0x10062b7
 1001d76:	e8 24 e5 ff ff       	call   100029f <printf>
 1001d7b:	83 c4 10             	add    $0x10,%esp
 1001d7e:	eb 11                	jmp    1001d91 <init_buspci+0x1b1>
 1001d80:	83 ec 0c             	sub    $0xc,%esp
 1001d83:	68 c1 62 00 01       	push   $0x10062c1
 1001d88:	e8 12 e5 ff ff       	call   100029f <printf>
 1001d8d:	83 c4 10             	add    $0x10,%esp
 1001d90:	90                   	nop
 1001d91:	83 45 e4 08          	addl   $0x8,-0x1c(%ebp)
 1001d95:	83 ec 08             	sub    $0x8,%esp
 1001d98:	ff 75 e4             	pushl  -0x1c(%ebp)
 1001d9b:	68 f8 0c 00 00       	push   $0xcf8
 1001da0:	e8 d7 e2 ff ff       	call   100007c <OutEax>
 1001da5:	83 c4 10             	add    $0x10,%esp
 1001da8:	83 ec 0c             	sub    $0xc,%esp
 1001dab:	68 fc 0c 00 00       	push   $0xcfc
 1001db0:	e8 77 e2 ff ff       	call   100002c <InEax>
 1001db5:	83 c4 10             	add    $0x10,%esp
 1001db8:	89 45 e8             	mov    %eax,-0x18(%ebp)
 1001dbb:	8b 45 e8             	mov    -0x18(%ebp),%eax
 1001dbe:	c1 e8 18             	shr    $0x18,%eax
 1001dc1:	83 f8 0a             	cmp    $0xa,%eax
 1001dc4:	0f 84 e0 01 00 00    	je     1001faa <init_buspci+0x3ca>
 1001dca:	83 f8 0a             	cmp    $0xa,%eax
 1001dcd:	77 73                	ja     1001e42 <init_buspci+0x262>
 1001dcf:	83 f8 04             	cmp    $0x4,%eax
 1001dd2:	0f 84 54 01 00 00    	je     1001f2c <init_buspci+0x34c>
 1001dd8:	83 f8 04             	cmp    $0x4,%eax
 1001ddb:	77 29                	ja     1001e06 <init_buspci+0x226>
 1001ddd:	83 f8 01             	cmp    $0x1,%eax
 1001de0:	0f 84 f9 00 00 00    	je     1001edf <init_buspci+0x2ff>
 1001de6:	83 f8 01             	cmp    $0x1,%eax
 1001de9:	0f 82 db 00 00 00    	jb     1001eca <init_buspci+0x2ea>
 1001def:	83 f8 02             	cmp    $0x2,%eax
 1001df2:	0f 84 0a 01 00 00    	je     1001f02 <init_buspci+0x322>
 1001df8:	83 f8 03             	cmp    $0x3,%eax
 1001dfb:	0f 84 16 01 00 00    	je     1001f17 <init_buspci+0x337>
 1001e01:	e9 8b 02 00 00       	jmp    1002091 <init_buspci+0x4b1>
 1001e06:	83 f8 07             	cmp    $0x7,%eax
 1001e09:	0f 84 5c 01 00 00    	je     1001f6b <init_buspci+0x38b>
 1001e0f:	83 f8 07             	cmp    $0x7,%eax
 1001e12:	77 17                	ja     1001e2b <init_buspci+0x24b>
 1001e14:	83 f8 05             	cmp    $0x5,%eax
 1001e17:	0f 84 24 01 00 00    	je     1001f41 <init_buspci+0x361>
 1001e1d:	83 f8 06             	cmp    $0x6,%eax
 1001e20:	0f 84 30 01 00 00    	je     1001f56 <init_buspci+0x376>
 1001e26:	e9 66 02 00 00       	jmp    1002091 <init_buspci+0x4b1>
 1001e2b:	83 f8 08             	cmp    $0x8,%eax
 1001e2e:	0f 84 4c 01 00 00    	je     1001f80 <init_buspci+0x3a0>
 1001e34:	83 f8 09             	cmp    $0x9,%eax
 1001e37:	0f 84 58 01 00 00    	je     1001f95 <init_buspci+0x3b5>
 1001e3d:	e9 4f 02 00 00       	jmp    1002091 <init_buspci+0x4b1>
 1001e42:	83 f8 10             	cmp    $0x10,%eax
 1001e45:	0f 84 da 01 00 00    	je     1002025 <init_buspci+0x445>
 1001e4b:	83 f8 10             	cmp    $0x10,%eax
 1001e4e:	77 3c                	ja     1001e8c <init_buspci+0x2ac>
 1001e50:	83 f8 0d             	cmp    $0xd,%eax
 1001e53:	0f 84 90 01 00 00    	je     1001fe9 <init_buspci+0x409>
 1001e59:	83 f8 0d             	cmp    $0xd,%eax
 1001e5c:	77 17                	ja     1001e75 <init_buspci+0x295>
 1001e5e:	83 f8 0b             	cmp    $0xb,%eax
 1001e61:	0f 84 58 01 00 00    	je     1001fbf <init_buspci+0x3df>
 1001e67:	83 f8 0c             	cmp    $0xc,%eax
 1001e6a:	0f 84 64 01 00 00    	je     1001fd4 <init_buspci+0x3f4>
 1001e70:	e9 1c 02 00 00       	jmp    1002091 <init_buspci+0x4b1>
 1001e75:	83 f8 0e             	cmp    $0xe,%eax
 1001e78:	0f 84 80 01 00 00    	je     1001ffe <init_buspci+0x41e>
 1001e7e:	83 f8 0f             	cmp    $0xf,%eax
 1001e81:	0f 84 8c 01 00 00    	je     1002013 <init_buspci+0x433>
 1001e87:	e9 05 02 00 00       	jmp    1002091 <init_buspci+0x4b1>
 1001e8c:	83 f8 13             	cmp    $0x13,%eax
 1001e8f:	0f 84 c6 01 00 00    	je     100205b <init_buspci+0x47b>
 1001e95:	83 f8 13             	cmp    $0x13,%eax
 1001e98:	77 17                	ja     1001eb1 <init_buspci+0x2d1>
 1001e9a:	83 f8 11             	cmp    $0x11,%eax
 1001e9d:	0f 84 94 01 00 00    	je     1002037 <init_buspci+0x457>
 1001ea3:	83 f8 12             	cmp    $0x12,%eax
 1001ea6:	0f 84 9d 01 00 00    	je     1002049 <init_buspci+0x469>
 1001eac:	e9 e0 01 00 00       	jmp    1002091 <init_buspci+0x4b1>
 1001eb1:	83 f8 40             	cmp    $0x40,%eax
 1001eb4:	0f 84 b3 01 00 00    	je     100206d <init_buspci+0x48d>
 1001eba:	3d ff 00 00 00       	cmp    $0xff,%eax
 1001ebf:	0f 84 ba 01 00 00    	je     100207f <init_buspci+0x49f>
 1001ec5:	e9 c7 01 00 00       	jmp    1002091 <init_buspci+0x4b1>
 1001eca:	83 ec 0c             	sub    $0xc,%esp
 1001ecd:	68 d6 62 00 01       	push   $0x10062d6
 1001ed2:	e8 c8 e3 ff ff       	call   100029f <printf>
 1001ed7:	83 c4 10             	add    $0x10,%esp
 1001eda:	e9 c3 01 00 00       	jmp    10020a2 <init_buspci+0x4c2>
 1001edf:	83 ec 0c             	sub    $0xc,%esp
 1001ee2:	68 ea 62 00 01       	push   $0x10062ea
 1001ee7:	e8 b3 e3 ff ff       	call   100029f <printf>
 1001eec:	83 c4 10             	add    $0x10,%esp
 1001eef:	83 ec 0c             	sub    $0xc,%esp
 1001ef2:	ff 75 e4             	pushl  -0x1c(%ebp)
 1001ef5:	e8 b3 f7 ff ff       	call   10016ad <MSC_init>
 1001efa:	83 c4 10             	add    $0x10,%esp
 1001efd:	e9 a0 01 00 00       	jmp    10020a2 <init_buspci+0x4c2>
 1001f02:	83 ec 0c             	sub    $0xc,%esp
 1001f05:	68 02 63 00 01       	push   $0x1006302
 1001f0a:	e8 90 e3 ff ff       	call   100029f <printf>
 1001f0f:	83 c4 10             	add    $0x10,%esp
 1001f12:	e9 8b 01 00 00       	jmp    10020a2 <init_buspci+0x4c2>
 1001f17:	83 ec 0c             	sub    $0xc,%esp
 1001f1a:	68 15 63 00 01       	push   $0x1006315
 1001f1f:	e8 7b e3 ff ff       	call   100029f <printf>
 1001f24:	83 c4 10             	add    $0x10,%esp
 1001f27:	e9 76 01 00 00       	jmp    10020a2 <init_buspci+0x4c2>
 1001f2c:	83 ec 0c             	sub    $0xc,%esp
 1001f2f:	68 28 63 00 01       	push   $0x1006328
 1001f34:	e8 66 e3 ff ff       	call   100029f <printf>
 1001f39:	83 c4 10             	add    $0x10,%esp
 1001f3c:	e9 61 01 00 00       	jmp    10020a2 <init_buspci+0x4c2>
 1001f41:	83 ec 0c             	sub    $0xc,%esp
 1001f44:	68 3e 63 00 01       	push   $0x100633e
 1001f49:	e8 51 e3 ff ff       	call   100029f <printf>
 1001f4e:	83 c4 10             	add    $0x10,%esp
 1001f51:	e9 4c 01 00 00       	jmp    10020a2 <init_buspci+0x4c2>
 1001f56:	83 ec 0c             	sub    $0xc,%esp
 1001f59:	68 50 63 00 01       	push   $0x1006350
 1001f5e:	e8 3c e3 ff ff       	call   100029f <printf>
 1001f63:	83 c4 10             	add    $0x10,%esp
 1001f66:	e9 37 01 00 00       	jmp    10020a2 <init_buspci+0x4c2>
 1001f6b:	83 ec 0c             	sub    $0xc,%esp
 1001f6e:	68 57 63 00 01       	push   $0x1006357
 1001f73:	e8 27 e3 ff ff       	call   100029f <printf>
 1001f78:	83 c4 10             	add    $0x10,%esp
 1001f7b:	e9 22 01 00 00       	jmp    10020a2 <init_buspci+0x4c2>
 1001f80:	83 ec 0c             	sub    $0xc,%esp
 1001f83:	68 70 63 00 01       	push   $0x1006370
 1001f88:	e8 12 e3 ff ff       	call   100029f <printf>
 1001f8d:	83 c4 10             	add    $0x10,%esp
 1001f90:	e9 0d 01 00 00       	jmp    10020a2 <init_buspci+0x4c2>
 1001f95:	83 ec 0c             	sub    $0xc,%esp
 1001f98:	68 8a 63 00 01       	push   $0x100638a
 1001f9d:	e8 fd e2 ff ff       	call   100029f <printf>
 1001fa2:	83 c4 10             	add    $0x10,%esp
 1001fa5:	e9 f8 00 00 00       	jmp    10020a2 <init_buspci+0x4c2>
 1001faa:	83 ec 0c             	sub    $0xc,%esp
 1001fad:	68 a2 63 00 01       	push   $0x10063a2
 1001fb2:	e8 e8 e2 ff ff       	call   100029f <printf>
 1001fb7:	83 c4 10             	add    $0x10,%esp
 1001fba:	e9 e3 00 00 00       	jmp    10020a2 <init_buspci+0x4c2>
 1001fbf:	83 ec 0c             	sub    $0xc,%esp
 1001fc2:	68 b2 63 00 01       	push   $0x10063b2
 1001fc7:	e8 d3 e2 ff ff       	call   100029f <printf>
 1001fcc:	83 c4 10             	add    $0x10,%esp
 1001fcf:	e9 ce 00 00 00       	jmp    10020a2 <init_buspci+0x4c2>
 1001fd4:	83 ec 0c             	sub    $0xc,%esp
 1001fd7:	68 bc 63 00 01       	push   $0x10063bc
 1001fdc:	e8 be e2 ff ff       	call   100029f <printf>
 1001fe1:	83 c4 10             	add    $0x10,%esp
 1001fe4:	e9 b9 00 00 00       	jmp    10020a2 <init_buspci+0x4c2>
 1001fe9:	83 ec 0c             	sub    $0xc,%esp
 1001fec:	68 d2 63 00 01       	push   $0x10063d2
 1001ff1:	e8 a9 e2 ff ff       	call   100029f <printf>
 1001ff6:	83 c4 10             	add    $0x10,%esp
 1001ff9:	e9 a4 00 00 00       	jmp    10020a2 <init_buspci+0x4c2>
 1001ffe:	83 ec 0c             	sub    $0xc,%esp
 1002001:	68 e6 63 00 01       	push   $0x10063e6
 1002006:	e8 94 e2 ff ff       	call   100029f <printf>
 100200b:	83 c4 10             	add    $0x10,%esp
 100200e:	e9 8f 00 00 00       	jmp    10020a2 <init_buspci+0x4c2>
 1002013:	83 ec 0c             	sub    $0xc,%esp
 1002016:	68 00 64 00 01       	push   $0x1006400
 100201b:	e8 7f e2 ff ff       	call   100029f <printf>
 1002020:	83 c4 10             	add    $0x10,%esp
 1002023:	eb 7d                	jmp    10020a2 <init_buspci+0x4c2>
 1002025:	83 ec 0c             	sub    $0xc,%esp
 1002028:	68 24 64 00 01       	push   $0x1006424
 100202d:	e8 6d e2 ff ff       	call   100029f <printf>
 1002032:	83 c4 10             	add    $0x10,%esp
 1002035:	eb 6b                	jmp    10020a2 <init_buspci+0x4c2>
 1002037:	83 ec 0c             	sub    $0xc,%esp
 100203a:	68 3a 64 00 01       	push   $0x100643a
 100203f:	e8 5b e2 ff ff       	call   100029f <printf>
 1002044:	83 c4 10             	add    $0x10,%esp
 1002047:	eb 59                	jmp    10020a2 <init_buspci+0x4c2>
 1002049:	83 ec 0c             	sub    $0xc,%esp
 100204c:	68 57 64 00 01       	push   $0x1006457
 1002051:	e8 49 e2 ff ff       	call   100029f <printf>
 1002056:	83 c4 10             	add    $0x10,%esp
 1002059:	eb 47                	jmp    10020a2 <init_buspci+0x4c2>
 100205b:	83 ec 0c             	sub    $0xc,%esp
 100205e:	68 6f 64 00 01       	push   $0x100646f
 1002063:	e8 37 e2 ff ff       	call   100029f <printf>
 1002068:	83 c4 10             	add    $0x10,%esp
 100206b:	eb 35                	jmp    10020a2 <init_buspci+0x4c2>
 100206d:	83 ec 0c             	sub    $0xc,%esp
 1002070:	68 8d 64 00 01       	push   $0x100648d
 1002075:	e8 25 e2 ff ff       	call   100029f <printf>
 100207a:	83 c4 10             	add    $0x10,%esp
 100207d:	eb 23                	jmp    10020a2 <init_buspci+0x4c2>
 100207f:	83 ec 0c             	sub    $0xc,%esp
 1002082:	68 99 64 00 01       	push   $0x1006499
 1002087:	e8 13 e2 ff ff       	call   100029f <printf>
 100208c:	83 c4 10             	add    $0x10,%esp
 100208f:	eb 11                	jmp    10020a2 <init_buspci+0x4c2>
 1002091:	83 ec 0c             	sub    $0xc,%esp
 1002094:	68 aa 64 00 01       	push   $0x10064aa
 1002099:	e8 01 e2 ff ff       	call   100029f <printf>
 100209e:	83 c4 10             	add    $0x10,%esp
 10020a1:	90                   	nop
 10020a2:	0f b6 45 ef          	movzbl -0x11(%ebp),%eax
 10020a6:	83 c0 01             	add    $0x1,%eax
 10020a9:	88 45 ef             	mov    %al,-0x11(%ebp)
 10020ac:	80 7d ef 08          	cmpb   $0x8,-0x11(%ebp)
 10020b0:	0f 85 58 fb ff ff    	jne    1001c0e <init_buspci+0x2e>
 10020b6:	83 45 f0 01          	addl   $0x1,-0x10(%ebp)
 10020ba:	83 7d f0 20          	cmpl   $0x20,-0x10(%ebp)
 10020be:	0f 85 41 fb ff ff    	jne    1001c05 <init_buspci+0x25>
 10020c4:	83 45 f4 01          	addl   $0x1,-0xc(%ebp)
 10020c8:	81 7d f4 ff 00 00 00 	cmpl   $0xff,-0xc(%ebp)
 10020cf:	0f 86 24 fb ff ff    	jbe    1001bf9 <init_buspci+0x19>
 10020d5:	83 ec 0c             	sub    $0xc,%esp
 10020d8:	68 6e 62 00 01       	push   $0x100626e
 10020dd:	e8 bd e1 ff ff       	call   100029f <printf>
 10020e2:	83 c4 10             	add    $0x10,%esp
 10020e5:	c9                   	leave  
 10020e6:	c3                   	ret    

010020e7 <init_device>:
 10020e7:	55                   	push   %ebp
 10020e8:	89 e5                	mov    %esp,%ebp
 10020ea:	83 ec 08             	sub    $0x8,%esp
 10020ed:	e8 ed ec ff ff       	call   1000ddf <init_CPU>
 10020f2:	e8 e9 fa ff ff       	call   1001be0 <init_buspci>
 10020f7:	c9                   	leave  
 10020f8:	c3                   	ret    

010020f9 <PATA_NoIRQ>:
 10020f9:	55                   	push   %ebp
 10020fa:	89 e5                	mov    %esp,%ebp
 10020fc:	6a 02                	push   $0x2
 10020fe:	68 f6 03 00 00       	push   $0x3f6
 1002103:	e8 98 df ff ff       	call   10000a0 <OutAl>
 1002108:	83 c4 08             	add    $0x8,%esp
 100210b:	c9                   	leave  
 100210c:	c3                   	ret    

0100210d <PATA_HardReset>:
 100210d:	55                   	push   %ebp
 100210e:	89 e5                	mov    %esp,%ebp
 1002110:	6a 04                	push   $0x4
 1002112:	68 f6 03 00 00       	push   $0x3f6
 1002117:	e8 84 df ff ff       	call   10000a0 <OutAl>
 100211c:	83 c4 08             	add    $0x8,%esp
 100211f:	68 ff 00 00 00       	push   $0xff
 1002124:	e8 e5 de ff ff       	call   100000e <WaitTick>
 1002129:	83 c4 04             	add    $0x4,%esp
 100212c:	6a 00                	push   $0x0
 100212e:	68 f6 03 00 00       	push   $0x3f6
 1002133:	e8 68 df ff ff       	call   10000a0 <OutAl>
 1002138:	83 c4 08             	add    $0x8,%esp
 100213b:	c9                   	leave  
 100213c:	c3                   	ret    

0100213d <PATA_Status>:
 100213d:	55                   	push   %ebp
 100213e:	89 e5                	mov    %esp,%ebp
 1002140:	83 ec 10             	sub    $0x10,%esp
 1002143:	c6 45 ff 00          	movb   $0x0,-0x1(%ebp)
 1002147:	c7 45 f8 00 00 00 00 	movl   $0x0,-0x8(%ebp)
 100214e:	eb 21                	jmp    1002171 <PATA_Status+0x34>
 1002150:	68 ff 0f 00 00       	push   $0xfff
 1002155:	e8 b4 de ff ff       	call   100000e <WaitTick>
 100215a:	83 c4 04             	add    $0x4,%esp
 100215d:	68 f7 01 00 00       	push   $0x1f7
 1002162:	e8 fc de ff ff       	call   1000063 <InAl>
 1002167:	83 c4 04             	add    $0x4,%esp
 100216a:	88 45 ff             	mov    %al,-0x1(%ebp)
 100216d:	83 45 f8 01          	addl   $0x1,-0x8(%ebp)
 1002171:	83 7d f8 05          	cmpl   $0x5,-0x8(%ebp)
 1002175:	75 d9                	jne    1002150 <PATA_Status+0x13>
 1002177:	0f b6 45 ff          	movzbl -0x1(%ebp),%eax
 100217b:	c9                   	leave  
 100217c:	c3                   	ret    

0100217d <PATA_Check>:
 100217d:	55                   	push   %ebp
 100217e:	89 e5                	mov    %esp,%ebp
 1002180:	b8 00 00 00 00       	mov    $0x0,%eax
 1002185:	5d                   	pop    %ebp
 1002186:	c3                   	ret    

01002187 <PATA_ReadCHS>:
 1002187:	55                   	push   %ebp
 1002188:	89 e5                	mov    %esp,%ebp
 100218a:	5d                   	pop    %ebp
 100218b:	c3                   	ret    

0100218c <PATA_ReadLBA48>:
 100218c:	55                   	push   %ebp
 100218d:	89 e5                	mov    %esp,%ebp
 100218f:	5d                   	pop    %ebp
 1002190:	c3                   	ret    

01002191 <PATA_ReadLBA28>:
 1002191:	55                   	push   %ebp
 1002192:	89 e5                	mov    %esp,%ebp
 1002194:	83 ec 18             	sub    $0x18,%esp
 1002197:	8b 55 08             	mov    0x8(%ebp),%edx
 100219a:	8b 45 0c             	mov    0xc(%ebp),%eax
 100219d:	88 55 ec             	mov    %dl,-0x14(%ebp)
 10021a0:	88 45 e8             	mov    %al,-0x18(%ebp)
 10021a3:	8b 45 14             	mov    0x14(%ebp),%eax
 10021a6:	89 45 f4             	mov    %eax,-0xc(%ebp)
 10021a9:	66 c7 45 f2 00 00    	movw   $0x0,-0xe(%ebp)
 10021af:	e8 59 ff ff ff       	call   100210d <PATA_HardReset>
 10021b4:	e8 40 ff ff ff       	call   10020f9 <PATA_NoIRQ>
 10021b9:	0f be 45 ec          	movsbl -0x14(%ebp),%eax
 10021bd:	85 c0                	test   %eax,%eax
 10021bf:	74 07                	je     10021c8 <PATA_ReadLBA28+0x37>
 10021c1:	83 f8 01             	cmp    $0x1,%eax
 10021c4:	74 16                	je     10021dc <PATA_ReadLBA28+0x4b>
 10021c6:	eb 28                	jmp    10021f0 <PATA_ReadLBA28+0x5f>
 10021c8:	68 e0 00 00 00       	push   $0xe0
 10021cd:	68 f6 01 00 00       	push   $0x1f6
 10021d2:	e8 c9 de ff ff       	call   10000a0 <OutAl>
 10021d7:	83 c4 08             	add    $0x8,%esp
 10021da:	eb 1e                	jmp    10021fa <PATA_ReadLBA28+0x69>
 10021dc:	68 f0 00 00 00       	push   $0xf0
 10021e1:	68 f6 01 00 00       	push   $0x1f6
 10021e6:	e8 b5 de ff ff       	call   10000a0 <OutAl>
 10021eb:	83 c4 08             	add    $0x8,%esp
 10021ee:	eb 0a                	jmp    10021fa <PATA_ReadLBA28+0x69>
 10021f0:	b8 03 00 00 00       	mov    $0x3,%eax
 10021f5:	e9 07 01 00 00       	jmp    1002301 <PATA_ReadLBA28+0x170>
 10021fa:	6a 00                	push   $0x0
 10021fc:	68 f1 01 00 00       	push   $0x1f1
 1002201:	e8 9a de ff ff       	call   10000a0 <OutAl>
 1002206:	83 c4 08             	add    $0x8,%esp
 1002209:	0f b6 45 e8          	movzbl -0x18(%ebp),%eax
 100220d:	50                   	push   %eax
 100220e:	68 f2 01 00 00       	push   $0x1f2
 1002213:	e8 88 de ff ff       	call   10000a0 <OutAl>
 1002218:	83 c4 08             	add    $0x8,%esp
 100221b:	8b 45 10             	mov    0x10(%ebp),%eax
 100221e:	0f b6 c0             	movzbl %al,%eax
 1002221:	50                   	push   %eax
 1002222:	68 f3 01 00 00       	push   $0x1f3
 1002227:	e8 74 de ff ff       	call   10000a0 <OutAl>
 100222c:	83 c4 08             	add    $0x8,%esp
 100222f:	8b 45 10             	mov    0x10(%ebp),%eax
 1002232:	c1 e8 08             	shr    $0x8,%eax
 1002235:	0f b6 c0             	movzbl %al,%eax
 1002238:	50                   	push   %eax
 1002239:	68 f4 01 00 00       	push   $0x1f4
 100223e:	e8 5d de ff ff       	call   10000a0 <OutAl>
 1002243:	83 c4 08             	add    $0x8,%esp
 1002246:	8b 45 10             	mov    0x10(%ebp),%eax
 1002249:	c1 e8 10             	shr    $0x10,%eax
 100224c:	0f b6 c0             	movzbl %al,%eax
 100224f:	50                   	push   %eax
 1002250:	68 f5 01 00 00       	push   $0x1f5
 1002255:	e8 46 de ff ff       	call   10000a0 <OutAl>
 100225a:	83 c4 08             	add    $0x8,%esp
 100225d:	6a 20                	push   $0x20
 100225f:	68 f7 01 00 00       	push   $0x1f7
 1002264:	e8 37 de ff ff       	call   10000a0 <OutAl>
 1002269:	83 c4 08             	add    $0x8,%esp
 100226c:	68 ff ff 00 00       	push   $0xffff
 1002271:	e8 98 dd ff ff       	call   100000e <WaitTick>
 1002276:	83 c4 04             	add    $0x4,%esp
 1002279:	c7 45 fc 00 00 00 00 	movl   $0x0,-0x4(%ebp)
 1002280:	eb 74                	jmp    10022f6 <PATA_ReadLBA28+0x165>
 1002282:	e8 b6 fe ff ff       	call   100213d <PATA_Status>
 1002287:	0f be c0             	movsbl %al,%eax
 100228a:	83 e0 08             	and    $0x8,%eax
 100228d:	85 c0                	test   %eax,%eax
 100228f:	74 4f                	je     10022e0 <PATA_ReadLBA28+0x14f>
 1002291:	c7 45 f8 00 00 00 00 	movl   $0x0,-0x8(%ebp)
 1002298:	eb 38                	jmp    10022d2 <PATA_ReadLBA28+0x141>
 100229a:	68 f0 01 00 00       	push   $0x1f0
 100229f:	e8 a3 dd ff ff       	call   1000047 <InAx>
 10022a4:	83 c4 04             	add    $0x4,%esp
 10022a7:	66 89 45 f2          	mov    %ax,-0xe(%ebp)
 10022ab:	8b 55 f8             	mov    -0x8(%ebp),%edx
 10022ae:	8b 45 f4             	mov    -0xc(%ebp),%eax
 10022b1:	01 d0                	add    %edx,%eax
 10022b3:	0f b7 55 f2          	movzwl -0xe(%ebp),%edx
 10022b7:	88 10                	mov    %dl,(%eax)
 10022b9:	8b 45 f8             	mov    -0x8(%ebp),%eax
 10022bc:	8d 50 01             	lea    0x1(%eax),%edx
 10022bf:	8b 45 f4             	mov    -0xc(%ebp),%eax
 10022c2:	01 d0                	add    %edx,%eax
 10022c4:	0f b7 55 f2          	movzwl -0xe(%ebp),%edx
 10022c8:	66 c1 ea 08          	shr    $0x8,%dx
 10022cc:	88 10                	mov    %dl,(%eax)
 10022ce:	83 45 f8 02          	addl   $0x2,-0x8(%ebp)
 10022d2:	0f b6 45 e8          	movzbl -0x18(%ebp),%eax
 10022d6:	c1 e0 09             	shl    $0x9,%eax
 10022d9:	3b 45 f8             	cmp    -0x8(%ebp),%eax
 10022dc:	75 bc                	jne    100229a <PATA_ReadLBA28+0x109>
 10022de:	eb 1c                	jmp    10022fc <PATA_ReadLBA28+0x16b>
 10022e0:	e8 28 fe ff ff       	call   100210d <PATA_HardReset>
 10022e5:	83 7d fc 0f          	cmpl   $0xf,-0x4(%ebp)
 10022e9:	75 07                	jne    10022f2 <PATA_ReadLBA28+0x161>
 10022eb:	b8 02 00 00 00       	mov    $0x2,%eax
 10022f0:	eb 0f                	jmp    1002301 <PATA_ReadLBA28+0x170>
 10022f2:	83 45 fc 01          	addl   $0x1,-0x4(%ebp)
 10022f6:	83 7d fc 10          	cmpl   $0x10,-0x4(%ebp)
 10022fa:	75 86                	jne    1002282 <PATA_ReadLBA28+0xf1>
 10022fc:	b8 00 00 00 00       	mov    $0x0,%eax
 1002301:	c9                   	leave  
 1002302:	c3                   	ret    

01002303 <_ELF86EchoEMachine>:
 1002303:	55                   	push   %ebp
 1002304:	89 e5                	mov    %esp,%ebp
 1002306:	83 ec 18             	sub    $0x18,%esp
 1002309:	8b 45 08             	mov    0x8(%ebp),%eax
 100230c:	88 45 f4             	mov    %al,-0xc(%ebp)
 100230f:	0f be 45 f4          	movsbl -0xc(%ebp),%eax
 1002313:	83 f8 08             	cmp    $0x8,%eax
 1002316:	0f 87 9c 00 00 00    	ja     10023b8 <_ELF86EchoEMachine+0xb5>
 100231c:	8b 04 85 24 65 00 01 	mov    0x1006524(,%eax,4),%eax
 1002323:	ff e0                	jmp    *%eax
 1002325:	83 ec 0c             	sub    $0xc,%esp
 1002328:	68 af 64 00 01       	push   $0x10064af
 100232d:	e8 6d df ff ff       	call   100029f <printf>
 1002332:	83 c4 10             	add    $0x10,%esp
 1002335:	e9 8e 00 00 00       	jmp    10023c8 <_ELF86EchoEMachine+0xc5>
 100233a:	83 ec 0c             	sub    $0xc,%esp
 100233d:	68 bb 64 00 01       	push   $0x10064bb
 1002342:	e8 58 df ff ff       	call   100029f <printf>
 1002347:	83 c4 10             	add    $0x10,%esp
 100234a:	eb 7c                	jmp    10023c8 <_ELF86EchoEMachine+0xc5>
 100234c:	83 ec 0c             	sub    $0xc,%esp
 100234f:	68 ca 64 00 01       	push   $0x10064ca
 1002354:	e8 46 df ff ff       	call   100029f <printf>
 1002359:	83 c4 10             	add    $0x10,%esp
 100235c:	eb 6a                	jmp    10023c8 <_ELF86EchoEMachine+0xc5>
 100235e:	83 ec 0c             	sub    $0xc,%esp
 1002361:	68 d1 64 00 01       	push   $0x10064d1
 1002366:	e8 34 df ff ff       	call   100029f <printf>
 100236b:	83 c4 10             	add    $0x10,%esp
 100236e:	eb 58                	jmp    10023c8 <_ELF86EchoEMachine+0xc5>
 1002370:	83 ec 0c             	sub    $0xc,%esp
 1002373:	68 de 64 00 01       	push   $0x10064de
 1002378:	e8 22 df ff ff       	call   100029f <printf>
 100237d:	83 c4 10             	add    $0x10,%esp
 1002380:	eb 46                	jmp    10023c8 <_ELF86EchoEMachine+0xc5>
 1002382:	83 ec 0c             	sub    $0xc,%esp
 1002385:	68 ee 64 00 01       	push   $0x10064ee
 100238a:	e8 10 df ff ff       	call   100029f <printf>
 100238f:	83 c4 10             	add    $0x10,%esp
 1002392:	eb 34                	jmp    10023c8 <_ELF86EchoEMachine+0xc5>
 1002394:	83 ec 0c             	sub    $0xc,%esp
 1002397:	68 fe 64 00 01       	push   $0x10064fe
 100239c:	e8 fe de ff ff       	call   100029f <printf>
 10023a1:	83 c4 10             	add    $0x10,%esp
 10023a4:	eb 22                	jmp    10023c8 <_ELF86EchoEMachine+0xc5>
 10023a6:	83 ec 0c             	sub    $0xc,%esp
 10023a9:	68 0b 65 00 01       	push   $0x100650b
 10023ae:	e8 ec de ff ff       	call   100029f <printf>
 10023b3:	83 c4 10             	add    $0x10,%esp
 10023b6:	eb 10                	jmp    10023c8 <_ELF86EchoEMachine+0xc5>
 10023b8:	83 ec 0c             	sub    $0xc,%esp
 10023bb:	68 18 65 00 01       	push   $0x1006518
 10023c0:	e8 da de ff ff       	call   100029f <printf>
 10023c5:	83 c4 10             	add    $0x10,%esp
 10023c8:	c9                   	leave  
 10023c9:	c3                   	ret    

010023ca <FUseHeaderExtract>:
 10023ca:	55                   	push   %ebp
 10023cb:	89 e5                	mov    %esp,%ebp
 10023cd:	83 ec 28             	sub    $0x28,%esp
 10023d0:	8b 45 08             	mov    0x8(%ebp),%eax
 10023d3:	88 45 e4             	mov    %al,-0x1c(%ebp)
 10023d6:	8b 45 0c             	mov    0xc(%ebp),%eax
 10023d9:	89 45 f0             	mov    %eax,-0x10(%ebp)
 10023dc:	0f be 45 e4          	movsbl -0x1c(%ebp),%eax
 10023e0:	83 f8 01             	cmp    $0x1,%eax
 10023e3:	0f 85 3c 02 00 00    	jne    1002625 <FUseHeaderExtract+0x25b>
 10023e9:	8b 45 f0             	mov    -0x10(%ebp),%eax
 10023ec:	83 c0 04             	add    $0x4,%eax
 10023ef:	0f b6 00             	movzbl (%eax),%eax
 10023f2:	3c 02                	cmp    $0x2,%al
 10023f4:	75 1d                	jne    1002413 <FUseHeaderExtract+0x49>
 10023f6:	83 ec 0c             	sub    $0xc,%esp
 10023f9:	68 48 65 00 01       	push   $0x1006548
 10023fe:	e8 9c de ff ff       	call   100029f <printf>
 1002403:	83 c4 10             	add    $0x10,%esp
 1002406:	8b 45 0c             	mov    0xc(%ebp),%eax
 1002409:	a3 d0 a7 00 01       	mov    %eax,0x100a7d0
 100240e:	e9 10 02 00 00       	jmp    1002623 <FUseHeaderExtract+0x259>
 1002413:	8b 45 0c             	mov    0xc(%ebp),%eax
 1002416:	a3 a0 9b 00 01       	mov    %eax,0x1009ba0
 100241b:	a1 a0 9b 00 01       	mov    0x1009ba0,%eax
 1002420:	8b 40 18             	mov    0x18(%eax),%eax
 1002423:	a3 84 a7 00 01       	mov    %eax,0x100a784
 1002428:	a1 a0 9b 00 01       	mov    0x1009ba0,%eax
 100242d:	8b 40 1c             	mov    0x1c(%eax),%eax
 1002430:	89 c2                	mov    %eax,%edx
 1002432:	a1 a0 9b 00 01       	mov    0x1009ba0,%eax
 1002437:	01 d0                	add    %edx,%eax
 1002439:	a3 d0 dd 00 01       	mov    %eax,0x100ddd0
 100243e:	e8 9a e0 ff ff       	call   10004dd <clrscr>
 1002443:	83 ec 0c             	sub    $0xc,%esp
 1002446:	68 5f 65 00 01       	push   $0x100655f
 100244b:	e8 4f de ff ff       	call   100029f <printf>
 1002450:	83 c4 10             	add    $0x10,%esp
 1002453:	a1 a0 9b 00 01       	mov    0x1009ba0,%eax
 1002458:	83 e8 23             	sub    $0x23,%eax
 100245b:	83 ec 0c             	sub    $0xc,%esp
 100245e:	50                   	push   %eax
 100245f:	e8 3b de ff ff       	call   100029f <printf>
 1002464:	83 c4 10             	add    $0x10,%esp
 1002467:	83 ec 0c             	sub    $0xc,%esp
 100246a:	68 68 65 00 01       	push   $0x1006568
 100246f:	e8 2b de ff ff       	call   100029f <printf>
 1002474:	83 c4 10             	add    $0x10,%esp
 1002477:	83 ec 0c             	sub    $0xc,%esp
 100247a:	68 6d 65 00 01       	push   $0x100656d
 100247f:	e8 1b de ff ff       	call   100029f <printf>
 1002484:	83 c4 10             	add    $0x10,%esp
 1002487:	8b 45 f0             	mov    -0x10(%ebp),%eax
 100248a:	83 c0 06             	add    $0x6,%eax
 100248d:	0f b6 00             	movzbl (%eax),%eax
 1002490:	0f be c0             	movsbl %al,%eax
 1002493:	c1 e0 18             	shl    $0x18,%eax
 1002496:	83 ec 08             	sub    $0x8,%esp
 1002499:	6a 02                	push   $0x2
 100249b:	50                   	push   %eax
 100249c:	e8 32 dd ff ff       	call   10001d3 <HexInAsciiSz>
 10024a1:	83 c4 10             	add    $0x10,%esp
 10024a4:	83 ec 0c             	sub    $0xc,%esp
 10024a7:	68 7a 65 00 01       	push   $0x100657a
 10024ac:	e8 ee dd ff ff       	call   100029f <printf>
 10024b1:	83 c4 10             	add    $0x10,%esp
 10024b4:	a1 a0 9b 00 01       	mov    0x1009ba0,%eax
 10024b9:	8b 40 14             	mov    0x14(%eax),%eax
 10024bc:	83 ec 08             	sub    $0x8,%esp
 10024bf:	6a 08                	push   $0x8
 10024c1:	50                   	push   %eax
 10024c2:	e8 0c dd ff ff       	call   10001d3 <HexInAsciiSz>
 10024c7:	83 c4 10             	add    $0x10,%esp
 10024ca:	83 ec 0c             	sub    $0xc,%esp
 10024cd:	68 7c 65 00 01       	push   $0x100657c
 10024d2:	e8 c8 dd ff ff       	call   100029f <printf>
 10024d7:	83 c4 10             	add    $0x10,%esp
 10024da:	a1 a0 9b 00 01       	mov    0x1009ba0,%eax
 10024df:	8b 40 18             	mov    0x18(%eax),%eax
 10024e2:	83 ec 08             	sub    $0x8,%esp
 10024e5:	6a 08                	push   $0x8
 10024e7:	50                   	push   %eax
 10024e8:	e8 e6 dc ff ff       	call   10001d3 <HexInAsciiSz>
 10024ed:	83 c4 10             	add    $0x10,%esp
 10024f0:	83 ec 0c             	sub    $0xc,%esp
 10024f3:	68 8d 65 00 01       	push   $0x100658d
 10024f8:	e8 a2 dd ff ff       	call   100029f <printf>
 10024fd:	83 c4 10             	add    $0x10,%esp
 1002500:	8b 45 0c             	mov    0xc(%ebp),%eax
 1002503:	83 ec 08             	sub    $0x8,%esp
 1002506:	6a 08                	push   $0x8
 1002508:	50                   	push   %eax
 1002509:	e8 c5 dc ff ff       	call   10001d3 <HexInAsciiSz>
 100250e:	83 c4 10             	add    $0x10,%esp
 1002511:	83 ec 0c             	sub    $0xc,%esp
 1002514:	68 9e 65 00 01       	push   $0x100659e
 1002519:	e8 81 dd ff ff       	call   100029f <printf>
 100251e:	83 c4 10             	add    $0x10,%esp
 1002521:	a1 a0 9b 00 01       	mov    0x1009ba0,%eax
 1002526:	8b 40 20             	mov    0x20(%eax),%eax
 1002529:	83 ec 08             	sub    $0x8,%esp
 100252c:	6a 08                	push   $0x8
 100252e:	50                   	push   %eax
 100252f:	e8 9f dc ff ff       	call   10001d3 <HexInAsciiSz>
 1002534:	83 c4 10             	add    $0x10,%esp
 1002537:	83 ec 0c             	sub    $0xc,%esp
 100253a:	68 b1 65 00 01       	push   $0x10065b1
 100253f:	e8 5b dd ff ff       	call   100029f <printf>
 1002544:	83 c4 10             	add    $0x10,%esp
 1002547:	a1 38 ac 00 01       	mov    0x100ac38,%eax
 100254c:	83 ec 08             	sub    $0x8,%esp
 100254f:	6a 08                	push   $0x8
 1002551:	50                   	push   %eax
 1002552:	e8 7c dc ff ff       	call   10001d3 <HexInAsciiSz>
 1002557:	83 c4 10             	add    $0x10,%esp
 100255a:	83 ec 0c             	sub    $0xc,%esp
 100255d:	68 c4 65 00 01       	push   $0x10065c4
 1002562:	e8 38 dd ff ff       	call   100029f <printf>
 1002567:	83 c4 10             	add    $0x10,%esp
 100256a:	a1 a0 9b 00 01       	mov    0x1009ba0,%eax
 100256f:	0f b7 40 32          	movzwl 0x32(%eax),%eax
 1002573:	0f b7 c0             	movzwl %ax,%eax
 1002576:	83 ec 08             	sub    $0x8,%esp
 1002579:	6a 08                	push   $0x8
 100257b:	50                   	push   %eax
 100257c:	e8 52 dc ff ff       	call   10001d3 <HexInAsciiSz>
 1002581:	83 c4 10             	add    $0x10,%esp
 1002584:	83 ec 0c             	sub    $0xc,%esp
 1002587:	68 d1 65 00 01       	push   $0x10065d1
 100258c:	e8 0e dd ff ff       	call   100029f <printf>
 1002591:	83 c4 10             	add    $0x10,%esp
 1002594:	a1 d0 dd 00 01       	mov    0x100ddd0,%eax
 1002599:	83 ec 08             	sub    $0x8,%esp
 100259c:	6a 08                	push   $0x8
 100259e:	50                   	push   %eax
 100259f:	e8 2f dc ff ff       	call   10001d3 <HexInAsciiSz>
 10025a4:	83 c4 10             	add    $0x10,%esp
 10025a7:	83 ec 0c             	sub    $0xc,%esp
 10025aa:	68 6e 62 00 01       	push   $0x100626e
 10025af:	e8 eb dc ff ff       	call   100029f <printf>
 10025b4:	83 c4 10             	add    $0x10,%esp
 10025b7:	c7 45 f4 00 00 00 00 	movl   $0x0,-0xc(%ebp)
 10025be:	eb 52                	jmp    1002612 <FUseHeaderExtract+0x248>
 10025c0:	a1 a0 9b 00 01       	mov    0x1009ba0,%eax
 10025c5:	0f b7 40 2a          	movzwl 0x2a(%eax),%eax
 10025c9:	0f b7 c0             	movzwl %ax,%eax
 10025cc:	0f af 45 f4          	imul   -0xc(%ebp),%eax
 10025d0:	89 c2                	mov    %eax,%edx
 10025d2:	a1 a0 9b 00 01       	mov    0x1009ba0,%eax
 10025d7:	8b 40 1c             	mov    0x1c(%eax),%eax
 10025da:	01 c2                	add    %eax,%edx
 10025dc:	a1 a0 9b 00 01       	mov    0x1009ba0,%eax
 10025e1:	01 d0                	add    %edx,%eax
 10025e3:	a3 d0 dd 00 01       	mov    %eax,0x100ddd0
 10025e8:	a1 d0 dd 00 01       	mov    0x100ddd0,%eax
 10025ed:	8b 00                	mov    (%eax),%eax
 10025ef:	83 f8 01             	cmp    $0x1,%eax
 10025f2:	75 1a                	jne    100260e <FUseHeaderExtract+0x244>
 10025f4:	a1 d0 dd 00 01       	mov    0x100ddd0,%eax
 10025f9:	8b 40 04             	mov    0x4(%eax),%eax
 10025fc:	a3 a8 a7 00 01       	mov    %eax,0x100a7a8
 1002601:	a1 d0 dd 00 01       	mov    0x100ddd0,%eax
 1002606:	8b 40 10             	mov    0x10(%eax),%eax
 1002609:	a3 ac a7 00 01       	mov    %eax,0x100a7ac
 100260e:	83 45 f4 01          	addl   $0x1,-0xc(%ebp)
 1002612:	a1 a0 9b 00 01       	mov    0x1009ba0,%eax
 1002617:	0f b7 40 2c          	movzwl 0x2c(%eax),%eax
 100261b:	0f b7 c0             	movzwl %ax,%eax
 100261e:	3b 45 f4             	cmp    -0xc(%ebp),%eax
 1002621:	75 9d                	jne    10025c0 <FUseHeaderExtract+0x1f6>
 1002623:	eb 11                	jmp    1002636 <FUseHeaderExtract+0x26c>
 1002625:	83 ec 0c             	sub    $0xc,%esp
 1002628:	68 e7 65 00 01       	push   $0x10065e7
 100262d:	e8 6d dc ff ff       	call   100029f <printf>
 1002632:	83 c4 10             	add    $0x10,%esp
 1002635:	90                   	nop
 1002636:	b8 00 00 00 00       	mov    $0x0,%eax
 100263b:	c9                   	leave  
 100263c:	c3                   	ret    

0100263d <FUseGetFileFormat>:
 100263d:	55                   	push   %ebp
 100263e:	89 e5                	mov    %esp,%ebp
 1002640:	83 ec 20             	sub    $0x20,%esp
 1002643:	c7 45 e8 44 5d 00 01 	movl   $0x1005d44,-0x18(%ebp)
 100264a:	c7 45 ec 00 00 00 00 	movl   $0x0,-0x14(%ebp)
 1002651:	8b 45 08             	mov    0x8(%ebp),%eax
 1002654:	89 45 f4             	mov    %eax,-0xc(%ebp)
 1002657:	c7 45 fc 00 00 00 00 	movl   $0x0,-0x4(%ebp)
 100265e:	c7 45 f8 00 00 00 00 	movl   $0x0,-0x8(%ebp)
 1002665:	eb 53                	jmp    10026ba <FUseGetFileFormat+0x7d>
 1002667:	8b 45 f8             	mov    -0x8(%ebp),%eax
 100266a:	8b 44 85 e8          	mov    -0x18(%ebp,%eax,4),%eax
 100266e:	89 45 f0             	mov    %eax,-0x10(%ebp)
 1002671:	83 45 f0 24          	addl   $0x24,-0x10(%ebp)
 1002675:	c7 45 fc 00 00 00 00 	movl   $0x0,-0x4(%ebp)
 100267c:	eb 1e                	jmp    100269c <FUseGetFileFormat+0x5f>
 100267e:	8b 45 fc             	mov    -0x4(%ebp),%eax
 1002681:	8d 50 01             	lea    0x1(%eax),%edx
 1002684:	8b 45 f0             	mov    -0x10(%ebp),%eax
 1002687:	01 d0                	add    %edx,%eax
 1002689:	0f b6 00             	movzbl (%eax),%eax
 100268c:	84 c0                	test   %al,%al
 100268e:	75 08                	jne    1002698 <FUseGetFileFormat+0x5b>
 1002690:	8b 45 f8             	mov    -0x8(%ebp),%eax
 1002693:	83 c0 01             	add    $0x1,%eax
 1002696:	eb 32                	jmp    10026ca <FUseGetFileFormat+0x8d>
 1002698:	83 45 fc 01          	addl   $0x1,-0x4(%ebp)
 100269c:	8b 55 fc             	mov    -0x4(%ebp),%edx
 100269f:	8b 45 f0             	mov    -0x10(%ebp),%eax
 10026a2:	01 d0                	add    %edx,%eax
 10026a4:	0f b6 10             	movzbl (%eax),%edx
 10026a7:	8b 4d fc             	mov    -0x4(%ebp),%ecx
 10026aa:	8b 45 f4             	mov    -0xc(%ebp),%eax
 10026ad:	01 c8                	add    %ecx,%eax
 10026af:	0f b6 00             	movzbl (%eax),%eax
 10026b2:	38 c2                	cmp    %al,%dl
 10026b4:	74 c8                	je     100267e <FUseGetFileFormat+0x41>
 10026b6:	83 45 f8 01          	addl   $0x1,-0x8(%ebp)
 10026ba:	8b 45 f8             	mov    -0x8(%ebp),%eax
 10026bd:	8b 44 85 e8          	mov    -0x18(%ebp,%eax,4),%eax
 10026c1:	85 c0                	test   %eax,%eax
 10026c3:	75 a2                	jne    1002667 <FUseGetFileFormat+0x2a>
 10026c5:	b8 00 00 00 00       	mov    $0x0,%eax
 10026ca:	c9                   	leave  
 10026cb:	c3                   	ret    

010026cc <GetThisFileSys>:
 10026cc:	55                   	push   %ebp
 10026cd:	89 e5                	mov    %esp,%ebp
 10026cf:	57                   	push   %edi
 10026d0:	56                   	push   %esi
 10026d1:	53                   	push   %ebx
 10026d2:	83 ec 3c             	sub    $0x3c,%esp
 10026d5:	8b 55 08             	mov    0x8(%ebp),%edx
 10026d8:	8b 45 0c             	mov    0xc(%ebp),%eax
 10026db:	88 55 c4             	mov    %dl,-0x3c(%ebp)
 10026de:	88 45 c0             	mov    %al,-0x40(%ebp)
 10026e1:	c7 45 e4 01 66 00 01 	movl   $0x1006601,-0x1c(%ebp)
 10026e8:	c7 45 e0 00 00 00 00 	movl   $0x0,-0x20(%ebp)
 10026ef:	c7 45 dc 40 9e 00 01 	movl   $0x1009e40,-0x24(%ebp)
 10026f6:	c7 45 d8 00 00 00 00 	movl   $0x0,-0x28(%ebp)
 10026fd:	c7 45 d4 00 00 00 00 	movl   $0x0,-0x2c(%ebp)
 1002704:	c7 45 d0 00 00 00 00 	movl   $0x0,-0x30(%ebp)
 100270b:	83 45 e4 24          	addl   $0x24,-0x1c(%ebp)
 100270f:	83 45 dc 52          	addl   $0x52,-0x24(%ebp)
 1002713:	eb 5b                	jmp    1002770 <GetThisFileSys+0xa4>
 1002715:	8b 45 e4             	mov    -0x1c(%ebp),%eax
 1002718:	0f b6 00             	movzbl (%eax),%eax
 100271b:	3c 3f                	cmp    $0x3f,%al
 100271d:	75 2b                	jne    100274a <GetThisFileSys+0x7e>
 100271f:	83 45 d8 01          	addl   $0x1,-0x28(%ebp)
 1002723:	8b 45 d0             	mov    -0x30(%ebp),%eax
 1002726:	3b 45 d4             	cmp    -0x2c(%ebp),%eax
 1002729:	75 02                	jne    100272d <GetThisFileSys+0x61>
 100272b:	eb 4d                	jmp    100277a <GetThisFileSys+0xae>
 100272d:	c7 45 d4 00 00 00 00 	movl   $0x0,-0x2c(%ebp)
 1002734:	c7 45 d0 00 00 00 00 	movl   $0x0,-0x30(%ebp)
 100273b:	c7 45 dc 40 9e 00 01 	movl   $0x1009e40,-0x24(%ebp)
 1002742:	83 45 dc 52          	addl   $0x52,-0x24(%ebp)
 1002746:	83 45 e4 01          	addl   $0x1,-0x1c(%ebp)
 100274a:	8b 45 e4             	mov    -0x1c(%ebp),%eax
 100274d:	0f b6 00             	movzbl (%eax),%eax
 1002750:	0f be d0             	movsbl %al,%edx
 1002753:	8b 45 dc             	mov    -0x24(%ebp),%eax
 1002756:	0f b6 00             	movzbl (%eax),%eax
 1002759:	0f b6 c0             	movzbl %al,%eax
 100275c:	39 c2                	cmp    %eax,%edx
 100275e:	75 04                	jne    1002764 <GetThisFileSys+0x98>
 1002760:	83 45 d4 01          	addl   $0x1,-0x2c(%ebp)
 1002764:	83 45 e4 01          	addl   $0x1,-0x1c(%ebp)
 1002768:	83 45 dc 01          	addl   $0x1,-0x24(%ebp)
 100276c:	83 45 d0 01          	addl   $0x1,-0x30(%ebp)
 1002770:	8b 45 e4             	mov    -0x1c(%ebp),%eax
 1002773:	0f b6 00             	movzbl (%eax),%eax
 1002776:	3c 21                	cmp    $0x21,%al
 1002778:	75 9b                	jne    1002715 <GetThisFileSys+0x49>
 100277a:	8b 45 d8             	mov    -0x28(%ebp),%eax
 100277d:	83 f8 01             	cmp    $0x1,%eax
 1002780:	74 08                	je     100278a <GetThisFileSys+0xbe>
 1002782:	83 f8 02             	cmp    $0x2,%eax
 1002785:	e9 c4 00 00 00       	jmp    100284e <GetThisFileSys+0x182>
 100278a:	0f b6 45 c4          	movzbl -0x3c(%ebp),%eax
 100278e:	0f b6 55 c0          	movzbl -0x40(%ebp),%edx
 1002792:	8b 4d d8             	mov    -0x28(%ebp),%ecx
 1002795:	89 cb                	mov    %ecx,%ebx
 1002797:	89 d1                	mov    %edx,%ecx
 1002799:	c1 e1 04             	shl    $0x4,%ecx
 100279c:	89 c2                	mov    %eax,%edx
 100279e:	8d 04 d5 00 00 00 00 	lea    0x0(,%edx,8),%eax
 10027a5:	89 c2                	mov    %eax,%edx
 10027a7:	89 d0                	mov    %edx,%eax
 10027a9:	c1 e0 05             	shl    $0x5,%eax
 10027ac:	29 d0                	sub    %edx,%eax
 10027ae:	01 c8                	add    %ecx,%eax
 10027b0:	05 00 90 00 01       	add    $0x1009000,%eax
 10027b5:	88 58 0c             	mov    %bl,0xc(%eax)
 10027b8:	0f b6 5d c4          	movzbl -0x3c(%ebp),%ebx
 10027bc:	0f b6 75 c0          	movzbl -0x40(%ebp),%esi
 10027c0:	83 ec 04             	sub    $0x4,%esp
 10027c3:	6a 00                	push   $0x0
 10027c5:	6a 00                	push   $0x0
 10027c7:	6a 01                	push   $0x1
 10027c9:	e8 ba 0e 00 00       	call   1003688 <malloc>
 10027ce:	83 c4 10             	add    $0x10,%esp
 10027d1:	89 c7                	mov    %eax,%edi
 10027d3:	c1 e6 04             	shl    $0x4,%esi
 10027d6:	89 f1                	mov    %esi,%ecx
 10027d8:	89 da                	mov    %ebx,%edx
 10027da:	8d 04 d5 00 00 00 00 	lea    0x0(,%edx,8),%eax
 10027e1:	89 c2                	mov    %eax,%edx
 10027e3:	89 d0                	mov    %edx,%eax
 10027e5:	c1 e0 05             	shl    $0x5,%eax
 10027e8:	29 d0                	sub    %edx,%eax
 10027ea:	01 c8                	add    %ecx,%eax
 10027ec:	05 00 90 00 01       	add    $0x1009000,%eax
 10027f1:	89 78 10             	mov    %edi,0x10(%eax)
 10027f4:	c7 45 dc 40 9e 00 01 	movl   $0x1009e40,-0x24(%ebp)
 10027fb:	0f b6 45 c4          	movzbl -0x3c(%ebp),%eax
 10027ff:	0f b6 55 c0          	movzbl -0x40(%ebp),%edx
 1002803:	89 d1                	mov    %edx,%ecx
 1002805:	c1 e1 04             	shl    $0x4,%ecx
 1002808:	89 c2                	mov    %eax,%edx
 100280a:	8d 04 d5 00 00 00 00 	lea    0x0(,%edx,8),%eax
 1002811:	89 c2                	mov    %eax,%edx
 1002813:	89 d0                	mov    %edx,%eax
 1002815:	c1 e0 05             	shl    $0x5,%eax
 1002818:	29 d0                	sub    %edx,%eax
 100281a:	01 c8                	add    %ecx,%eax
 100281c:	05 00 90 00 01       	add    $0x1009000,%eax
 1002821:	8b 40 10             	mov    0x10(%eax),%eax
 1002824:	89 45 e0             	mov    %eax,-0x20(%ebp)
 1002827:	c7 45 d4 00 00 00 00 	movl   $0x0,-0x2c(%ebp)
 100282e:	eb 17                	jmp    1002847 <GetThisFileSys+0x17b>
 1002830:	8b 45 dc             	mov    -0x24(%ebp),%eax
 1002833:	0f b6 10             	movzbl (%eax),%edx
 1002836:	8b 45 e0             	mov    -0x20(%ebp),%eax
 1002839:	88 10                	mov    %dl,(%eax)
 100283b:	83 45 e0 01          	addl   $0x1,-0x20(%ebp)
 100283f:	83 45 dc 01          	addl   $0x1,-0x24(%ebp)
 1002843:	83 45 d4 01          	addl   $0x1,-0x2c(%ebp)
 1002847:	83 7d d4 5a          	cmpl   $0x5a,-0x2c(%ebp)
 100284b:	75 e3                	jne    1002830 <GetThisFileSys+0x164>
 100284d:	90                   	nop
 100284e:	8b 45 d8             	mov    -0x28(%ebp),%eax
 1002851:	8d 65 f4             	lea    -0xc(%ebp),%esp
 1002854:	5b                   	pop    %ebx
 1002855:	5e                   	pop    %esi
 1002856:	5f                   	pop    %edi
 1002857:	5d                   	pop    %ebp
 1002858:	c3                   	ret    

01002859 <HDDinit>:
 1002859:	55                   	push   %ebp
 100285a:	89 e5                	mov    %esp,%ebp
 100285c:	83 ec 14             	sub    $0x14,%esp
 100285f:	8b 45 08             	mov    0x8(%ebp),%eax
 1002862:	88 45 ec             	mov    %al,-0x14(%ebp)
 1002865:	c7 45 fc 00 00 00 00 	movl   $0x0,-0x4(%ebp)
 100286c:	0f b6 05 a0 9d 00 01 	movzbl 0x1009da0,%eax
 1002873:	3c 0c                	cmp    $0xc,%al
 1002875:	75 0a                	jne    1002881 <HDDinit+0x28>
 1002877:	b8 09 00 00 00       	mov    $0x9,%eax
 100287c:	e9 03 03 00 00       	jmp    1002b84 <HDDinit+0x32b>
 1002881:	0f b6 45 ec          	movzbl -0x14(%ebp),%eax
 1002885:	83 f8 04             	cmp    $0x4,%eax
 1002888:	0f 84 c9 02 00 00    	je     1002b57 <HDDinit+0x2fe>
 100288e:	83 f8 04             	cmp    $0x4,%eax
 1002891:	7f 2e                	jg     10028c1 <HDDinit+0x68>
 1002893:	83 f8 01             	cmp    $0x1,%eax
 1002896:	74 67                	je     10028ff <HDDinit+0xa6>
 1002898:	83 f8 01             	cmp    $0x1,%eax
 100289b:	7f 0d                	jg     10028aa <HDDinit+0x51>
 100289d:	85 c0                	test   %eax,%eax
 100289f:	0f 84 b5 02 00 00    	je     1002b5a <HDDinit+0x301>
 10028a5:	e9 c6 02 00 00       	jmp    1002b70 <HDDinit+0x317>
 10028aa:	83 f8 02             	cmp    $0x2,%eax
 10028ad:	0f 84 aa 02 00 00    	je     1002b5d <HDDinit+0x304>
 10028b3:	83 f8 03             	cmp    $0x3,%eax
 10028b6:	0f 84 a4 02 00 00    	je     1002b60 <HDDinit+0x307>
 10028bc:	e9 af 02 00 00       	jmp    1002b70 <HDDinit+0x317>
 10028c1:	83 f8 07             	cmp    $0x7,%eax
 10028c4:	0f 84 99 02 00 00    	je     1002b63 <HDDinit+0x30a>
 10028ca:	83 f8 07             	cmp    $0x7,%eax
 10028cd:	7f 17                	jg     10028e6 <HDDinit+0x8d>
 10028cf:	83 f8 05             	cmp    $0x5,%eax
 10028d2:	0f 84 8e 02 00 00    	je     1002b66 <HDDinit+0x30d>
 10028d8:	83 f8 06             	cmp    $0x6,%eax
 10028db:	0f 84 88 02 00 00    	je     1002b69 <HDDinit+0x310>
 10028e1:	e9 8a 02 00 00       	jmp    1002b70 <HDDinit+0x317>
 10028e6:	83 f8 08             	cmp    $0x8,%eax
 10028e9:	0f 84 7d 02 00 00    	je     1002b6c <HDDinit+0x313>
 10028ef:	3d 80 00 00 00       	cmp    $0x80,%eax
 10028f4:	0f 84 75 02 00 00    	je     1002b6f <HDDinit+0x316>
 10028fa:	e9 71 02 00 00       	jmp    1002b70 <HDDinit+0x317>
 10028ff:	68 40 9e 00 01       	push   $0x1009e40
 1002904:	6a 00                	push   $0x0
 1002906:	6a 01                	push   $0x1
 1002908:	6a 01                	push   $0x1
 100290a:	e8 82 f8 ff ff       	call   1002191 <PATA_ReadLBA28>
 100290f:	83 c4 10             	add    $0x10,%esp
 1002912:	84 c0                	test   %al,%al
 1002914:	0f 85 0f 01 00 00    	jne    1002a29 <HDDinit+0x1d0>
 100291a:	0f b6 05 a0 9d 00 01 	movzbl 0x1009da0,%eax
 1002921:	0f b6 c8             	movzbl %al,%ecx
 1002924:	0f b6 05 a0 9d 00 01 	movzbl 0x1009da0,%eax
 100292b:	0f b6 c0             	movzbl %al,%eax
 100292e:	c1 e0 03             	shl    $0x3,%eax
 1002931:	89 c2                	mov    %eax,%edx
 1002933:	c1 e2 05             	shl    $0x5,%edx
 1002936:	29 c2                	sub    %eax,%edx
 1002938:	89 d0                	mov    %edx,%eax
 100293a:	05 00 90 00 01       	add    $0x1009000,%eax
 100293f:	0f b6 40 03          	movzbl 0x3(%eax),%eax
 1002943:	8d 50 09             	lea    0x9(%eax),%edx
 1002946:	89 c8                	mov    %ecx,%eax
 1002948:	c1 e0 03             	shl    $0x3,%eax
 100294b:	89 c1                	mov    %eax,%ecx
 100294d:	c1 e1 05             	shl    $0x5,%ecx
 1002950:	29 c1                	sub    %eax,%ecx
 1002952:	89 c8                	mov    %ecx,%eax
 1002954:	05 00 90 00 01       	add    $0x1009000,%eax
 1002959:	88 50 03             	mov    %dl,0x3(%eax)
 100295c:	0f b6 05 a0 9d 00 01 	movzbl 0x1009da0,%eax
 1002963:	0f b6 c0             	movzbl %al,%eax
 1002966:	c1 e0 03             	shl    $0x3,%eax
 1002969:	89 c2                	mov    %eax,%edx
 100296b:	c1 e2 05             	shl    $0x5,%edx
 100296e:	29 c2                	sub    %eax,%edx
 1002970:	89 d0                	mov    %edx,%eax
 1002972:	05 00 90 00 01       	add    $0x1009000,%eax
 1002977:	c6 00 01             	movb   $0x1,(%eax)
 100297a:	0f b6 05 a0 9d 00 01 	movzbl 0x1009da0,%eax
 1002981:	0f b6 c0             	movzbl %al,%eax
 1002984:	c1 e0 03             	shl    $0x3,%eax
 1002987:	89 c2                	mov    %eax,%edx
 1002989:	c1 e2 05             	shl    $0x5,%edx
 100298c:	29 c2                	sub    %eax,%edx
 100298e:	89 d0                	mov    %edx,%eax
 1002990:	05 00 90 00 01       	add    $0x1009000,%eax
 1002995:	c6 40 02 01          	movb   $0x1,0x2(%eax)
 1002999:	0f b6 05 a0 9d 00 01 	movzbl 0x1009da0,%eax
 10029a0:	0f b6 c0             	movzbl %al,%eax
 10029a3:	8b 55 fc             	mov    -0x4(%ebp),%edx
 10029a6:	89 d1                	mov    %edx,%ecx
 10029a8:	c1 e1 04             	shl    $0x4,%ecx
 10029ab:	89 c2                	mov    %eax,%edx
 10029ad:	8d 04 d5 00 00 00 00 	lea    0x0(,%edx,8),%eax
 10029b4:	89 c2                	mov    %eax,%edx
 10029b6:	89 d0                	mov    %edx,%eax
 10029b8:	c1 e0 05             	shl    $0x5,%eax
 10029bb:	29 d0                	sub    %edx,%eax
 10029bd:	01 c8                	add    %ecx,%eax
 10029bf:	05 00 90 00 01       	add    $0x1009000,%eax
 10029c4:	c6 40 04 00          	movb   $0x0,0x4(%eax)
 10029c8:	0f b6 05 a0 9d 00 01 	movzbl 0x1009da0,%eax
 10029cf:	0f b6 c0             	movzbl %al,%eax
 10029d2:	8b 55 fc             	mov    -0x4(%ebp),%edx
 10029d5:	89 d1                	mov    %edx,%ecx
 10029d7:	c1 e1 04             	shl    $0x4,%ecx
 10029da:	89 c2                	mov    %eax,%edx
 10029dc:	8d 04 d5 00 00 00 00 	lea    0x0(,%edx,8),%eax
 10029e3:	89 c2                	mov    %eax,%edx
 10029e5:	89 d0                	mov    %edx,%eax
 10029e7:	c1 e0 05             	shl    $0x5,%eax
 10029ea:	29 d0                	sub    %edx,%eax
 10029ec:	01 c8                	add    %ecx,%eax
 10029ee:	05 00 90 00 01       	add    $0x1009000,%eax
 10029f3:	c7 40 08 00 00 00 00 	movl   $0x0,0x8(%eax)
 10029fa:	0f b6 05 a0 9d 00 01 	movzbl 0x1009da0,%eax
 1002a01:	0f b6 c0             	movzbl %al,%eax
 1002a04:	8b 55 fc             	mov    -0x4(%ebp),%edx
 1002a07:	89 d1                	mov    %edx,%ecx
 1002a09:	c1 e1 04             	shl    $0x4,%ecx
 1002a0c:	89 c2                	mov    %eax,%edx
 1002a0e:	8d 04 d5 00 00 00 00 	lea    0x0(,%edx,8),%eax
 1002a15:	89 c2                	mov    %eax,%edx
 1002a17:	89 d0                	mov    %edx,%eax
 1002a19:	c1 e0 05             	shl    $0x5,%eax
 1002a1c:	29 d0                	sub    %edx,%eax
 1002a1e:	01 c8                	add    %ecx,%eax
 1002a20:	05 00 90 00 01       	add    $0x1009000,%eax
 1002a25:	c6 40 0c 00          	movb   $0x0,0xc(%eax)
 1002a29:	68 40 9e 00 01       	push   $0x1009e40
 1002a2e:	6a 00                	push   $0x0
 1002a30:	6a 01                	push   $0x1
 1002a32:	6a 00                	push   $0x0
 1002a34:	e8 58 f7 ff ff       	call   1002191 <PATA_ReadLBA28>
 1002a39:	83 c4 10             	add    $0x10,%esp
 1002a3c:	84 c0                	test   %al,%al
 1002a3e:	0f 85 11 01 00 00    	jne    1002b55 <HDDinit+0x2fc>
 1002a44:	0f b6 05 a0 9d 00 01 	movzbl 0x1009da0,%eax
 1002a4b:	0f b6 c8             	movzbl %al,%ecx
 1002a4e:	0f b6 05 a0 9d 00 01 	movzbl 0x1009da0,%eax
 1002a55:	0f b6 c0             	movzbl %al,%eax
 1002a58:	c1 e0 03             	shl    $0x3,%eax
 1002a5b:	89 c2                	mov    %eax,%edx
 1002a5d:	c1 e2 05             	shl    $0x5,%edx
 1002a60:	29 c2                	sub    %eax,%edx
 1002a62:	89 d0                	mov    %edx,%eax
 1002a64:	05 00 90 00 01       	add    $0x1009000,%eax
 1002a69:	0f b6 40 03          	movzbl 0x3(%eax),%eax
 1002a6d:	8d 50 09             	lea    0x9(%eax),%edx
 1002a70:	89 c8                	mov    %ecx,%eax
 1002a72:	c1 e0 03             	shl    $0x3,%eax
 1002a75:	89 c1                	mov    %eax,%ecx
 1002a77:	c1 e1 05             	shl    $0x5,%ecx
 1002a7a:	29 c1                	sub    %eax,%ecx
 1002a7c:	89 c8                	mov    %ecx,%eax
 1002a7e:	05 00 90 00 01       	add    $0x1009000,%eax
 1002a83:	88 50 03             	mov    %dl,0x3(%eax)
 1002a86:	0f b6 05 a0 9d 00 01 	movzbl 0x1009da0,%eax
 1002a8d:	0f b6 c0             	movzbl %al,%eax
 1002a90:	c1 e0 03             	shl    $0x3,%eax
 1002a93:	89 c2                	mov    %eax,%edx
 1002a95:	c1 e2 05             	shl    $0x5,%edx
 1002a98:	29 c2                	sub    %eax,%edx
 1002a9a:	89 d0                	mov    %edx,%eax
 1002a9c:	05 00 90 00 01       	add    $0x1009000,%eax
 1002aa1:	c6 00 00             	movb   $0x0,(%eax)
 1002aa4:	0f b6 05 a0 9d 00 01 	movzbl 0x1009da0,%eax
 1002aab:	0f b6 c0             	movzbl %al,%eax
 1002aae:	c1 e0 03             	shl    $0x3,%eax
 1002ab1:	89 c2                	mov    %eax,%edx
 1002ab3:	c1 e2 05             	shl    $0x5,%edx
 1002ab6:	29 c2                	sub    %eax,%edx
 1002ab8:	89 d0                	mov    %edx,%eax
 1002aba:	05 00 90 00 01       	add    $0x1009000,%eax
 1002abf:	c6 40 02 01          	movb   $0x1,0x2(%eax)
 1002ac3:	0f b6 05 a0 9d 00 01 	movzbl 0x1009da0,%eax
 1002aca:	0f b6 c0             	movzbl %al,%eax
 1002acd:	8b 55 fc             	mov    -0x4(%ebp),%edx
 1002ad0:	89 d1                	mov    %edx,%ecx
 1002ad2:	c1 e1 04             	shl    $0x4,%ecx
 1002ad5:	89 c2                	mov    %eax,%edx
 1002ad7:	8d 04 d5 00 00 00 00 	lea    0x0(,%edx,8),%eax
 1002ade:	89 c2                	mov    %eax,%edx
 1002ae0:	89 d0                	mov    %edx,%eax
 1002ae2:	c1 e0 05             	shl    $0x5,%eax
 1002ae5:	29 d0                	sub    %edx,%eax
 1002ae7:	01 c8                	add    %ecx,%eax
 1002ae9:	05 00 90 00 01       	add    $0x1009000,%eax
 1002aee:	c6 40 04 00          	movb   $0x0,0x4(%eax)
 1002af2:	0f b6 05 a0 9d 00 01 	movzbl 0x1009da0,%eax
 1002af9:	0f b6 c0             	movzbl %al,%eax
 1002afc:	8b 55 fc             	mov    -0x4(%ebp),%edx
 1002aff:	89 d1                	mov    %edx,%ecx
 1002b01:	c1 e1 04             	shl    $0x4,%ecx
 1002b04:	89 c2                	mov    %eax,%edx
 1002b06:	8d 04 d5 00 00 00 00 	lea    0x0(,%edx,8),%eax
 1002b0d:	89 c2                	mov    %eax,%edx
 1002b0f:	89 d0                	mov    %edx,%eax
 1002b11:	c1 e0 05             	shl    $0x5,%eax
 1002b14:	29 d0                	sub    %edx,%eax
 1002b16:	01 c8                	add    %ecx,%eax
 1002b18:	05 00 90 00 01       	add    $0x1009000,%eax
 1002b1d:	c7 40 08 00 00 00 00 	movl   $0x0,0x8(%eax)
 1002b24:	0f b6 05 a0 9d 00 01 	movzbl 0x1009da0,%eax
 1002b2b:	0f b6 c0             	movzbl %al,%eax
 1002b2e:	8b 55 fc             	mov    -0x4(%ebp),%edx
 1002b31:	89 d1                	mov    %edx,%ecx
 1002b33:	c1 e1 04             	shl    $0x4,%ecx
 1002b36:	89 c2                	mov    %eax,%edx
 1002b38:	8d 04 d5 00 00 00 00 	lea    0x0(,%edx,8),%eax
 1002b3f:	89 c2                	mov    %eax,%edx
 1002b41:	89 d0                	mov    %edx,%eax
 1002b43:	c1 e0 05             	shl    $0x5,%eax
 1002b46:	29 d0                	sub    %edx,%eax
 1002b48:	01 c8                	add    %ecx,%eax
 1002b4a:	05 00 90 00 01       	add    $0x1009000,%eax
 1002b4f:	c6 40 0c 00          	movb   $0x0,0xc(%eax)
 1002b53:	eb 1b                	jmp    1002b70 <HDDinit+0x317>
 1002b55:	eb 19                	jmp    1002b70 <HDDinit+0x317>
 1002b57:	90                   	nop
 1002b58:	eb 16                	jmp    1002b70 <HDDinit+0x317>
 1002b5a:	90                   	nop
 1002b5b:	eb 13                	jmp    1002b70 <HDDinit+0x317>
 1002b5d:	90                   	nop
 1002b5e:	eb 10                	jmp    1002b70 <HDDinit+0x317>
 1002b60:	90                   	nop
 1002b61:	eb 0d                	jmp    1002b70 <HDDinit+0x317>
 1002b63:	90                   	nop
 1002b64:	eb 0a                	jmp    1002b70 <HDDinit+0x317>
 1002b66:	90                   	nop
 1002b67:	eb 07                	jmp    1002b70 <HDDinit+0x317>
 1002b69:	90                   	nop
 1002b6a:	eb 04                	jmp    1002b70 <HDDinit+0x317>
 1002b6c:	90                   	nop
 1002b6d:	eb 01                	jmp    1002b70 <HDDinit+0x317>
 1002b6f:	90                   	nop
 1002b70:	0f b6 05 a0 9d 00 01 	movzbl 0x1009da0,%eax
 1002b77:	83 c0 01             	add    $0x1,%eax
 1002b7a:	a2 a0 9d 00 01       	mov    %al,0x1009da0
 1002b7f:	b8 00 00 00 00       	mov    $0x0,%eax
 1002b84:	c9                   	leave  
 1002b85:	c3                   	ret    

01002b86 <ReadHDD>:
 1002b86:	55                   	push   %ebp
 1002b87:	89 e5                	mov    %esp,%ebp
 1002b89:	83 ec 18             	sub    $0x18,%esp
 1002b8c:	8b 55 08             	mov    0x8(%ebp),%edx
 1002b8f:	8b 45 10             	mov    0x10(%ebp),%eax
 1002b92:	66 89 55 ec          	mov    %dx,-0x14(%ebp)
 1002b96:	88 45 e8             	mov    %al,-0x18(%ebp)
 1002b99:	0f b7 45 ec          	movzwl -0x14(%ebp),%eax
 1002b9d:	66 c1 e8 08          	shr    $0x8,%ax
 1002ba1:	88 45 ff             	mov    %al,-0x1(%ebp)
 1002ba4:	0f b7 45 ec          	movzwl -0x14(%ebp),%eax
 1002ba8:	88 45 fe             	mov    %al,-0x2(%ebp)
 1002bab:	0f b6 45 ff          	movzbl -0x1(%ebp),%eax
 1002baf:	c1 e0 03             	shl    $0x3,%eax
 1002bb2:	89 c2                	mov    %eax,%edx
 1002bb4:	c1 e2 05             	shl    $0x5,%edx
 1002bb7:	29 c2                	sub    %eax,%edx
 1002bb9:	89 d0                	mov    %edx,%eax
 1002bbb:	05 00 90 00 01       	add    $0x1009000,%eax
 1002bc0:	0f b6 40 02          	movzbl 0x2(%eax),%eax
 1002bc4:	0f b6 c0             	movzbl %al,%eax
 1002bc7:	85 c0                	test   %eax,%eax
 1002bc9:	0f 84 99 00 00 00    	je     1002c68 <ReadHDD+0xe2>
 1002bcf:	83 f8 01             	cmp    $0x1,%eax
 1002bd2:	0f 85 91 00 00 00    	jne    1002c69 <ReadHDD+0xe3>
 1002bd8:	0f b6 45 ff          	movzbl -0x1(%ebp),%eax
 1002bdc:	c1 e0 03             	shl    $0x3,%eax
 1002bdf:	89 c2                	mov    %eax,%edx
 1002be1:	c1 e2 05             	shl    $0x5,%edx
 1002be4:	29 c2                	sub    %eax,%edx
 1002be6:	89 d0                	mov    %edx,%eax
 1002be8:	05 00 90 00 01       	add    $0x1009000,%eax
 1002bed:	0f b6 40 03          	movzbl 0x3(%eax),%eax
 1002bf1:	0f b6 c0             	movzbl %al,%eax
 1002bf4:	83 e0 04             	and    $0x4,%eax
 1002bf7:	85 c0                	test   %eax,%eax
 1002bf9:	74 07                	je     1002c02 <ReadHDD+0x7c>
 1002bfb:	e8 8c f5 ff ff       	call   100218c <PATA_ReadLBA48>
 1002c00:	eb 64                	jmp    1002c66 <ReadHDD+0xe0>
 1002c02:	0f b6 45 ff          	movzbl -0x1(%ebp),%eax
 1002c06:	c1 e0 03             	shl    $0x3,%eax
 1002c09:	89 c2                	mov    %eax,%edx
 1002c0b:	c1 e2 05             	shl    $0x5,%edx
 1002c0e:	29 c2                	sub    %eax,%edx
 1002c10:	89 d0                	mov    %edx,%eax
 1002c12:	05 00 90 00 01       	add    $0x1009000,%eax
 1002c17:	0f b6 40 03          	movzbl 0x3(%eax),%eax
 1002c1b:	0f b6 c0             	movzbl %al,%eax
 1002c1e:	83 e0 08             	and    $0x8,%eax
 1002c21:	85 c0                	test   %eax,%eax
 1002c23:	74 3a                	je     1002c5f <ReadHDD+0xd9>
 1002c25:	0f b6 55 e8          	movzbl -0x18(%ebp),%edx
 1002c29:	0f b6 45 ff          	movzbl -0x1(%ebp),%eax
 1002c2d:	c1 e0 03             	shl    $0x3,%eax
 1002c30:	89 c1                	mov    %eax,%ecx
 1002c32:	c1 e1 05             	shl    $0x5,%ecx
 1002c35:	29 c1                	sub    %eax,%ecx
 1002c37:	89 c8                	mov    %ecx,%eax
 1002c39:	05 00 90 00 01       	add    $0x1009000,%eax
 1002c3e:	0f b6 00             	movzbl (%eax),%eax
 1002c41:	0f be c0             	movsbl %al,%eax
 1002c44:	ff 75 0c             	pushl  0xc(%ebp)
 1002c47:	ff 75 14             	pushl  0x14(%ebp)
 1002c4a:	52                   	push   %edx
 1002c4b:	50                   	push   %eax
 1002c4c:	e8 40 f5 ff ff       	call   1002191 <PATA_ReadLBA28>
 1002c51:	83 c4 10             	add    $0x10,%esp
 1002c54:	84 c0                	test   %al,%al
 1002c56:	75 0e                	jne    1002c66 <ReadHDD+0xe0>
 1002c58:	b8 01 00 00 00       	mov    $0x1,%eax
 1002c5d:	eb 0f                	jmp    1002c6e <ReadHDD+0xe8>
 1002c5f:	e8 23 f5 ff ff       	call   1002187 <PATA_ReadCHS>
 1002c64:	eb 03                	jmp    1002c69 <ReadHDD+0xe3>
 1002c66:	eb 01                	jmp    1002c69 <ReadHDD+0xe3>
 1002c68:	90                   	nop
 1002c69:	b8 00 00 00 00       	mov    $0x0,%eax
 1002c6e:	c9                   	leave  
 1002c6f:	c3                   	ret    

01002c70 <fopen>:
 1002c70:	55                   	push   %ebp
 1002c71:	89 e5                	mov    %esp,%ebp
 1002c73:	53                   	push   %ebx
 1002c74:	83 ec 44             	sub    $0x44,%esp
 1002c77:	8b 45 0c             	mov    0xc(%ebp),%eax
 1002c7a:	66 89 45 c4          	mov    %ax,-0x3c(%ebp)
 1002c7e:	8b 45 08             	mov    0x8(%ebp),%eax
 1002c81:	89 45 f4             	mov    %eax,-0xc(%ebp)
 1002c84:	83 45 f4 24          	addl   $0x24,-0xc(%ebp)
 1002c88:	0f b7 45 c4          	movzwl -0x3c(%ebp),%eax
 1002c8c:	66 c1 e8 08          	shr    $0x8,%ax
 1002c90:	88 45 db             	mov    %al,-0x25(%ebp)
 1002c93:	0f b7 45 c4          	movzwl -0x3c(%ebp),%eax
 1002c97:	88 45 da             	mov    %al,-0x26(%ebp)
 1002c9a:	0f b6 45 db          	movzbl -0x25(%ebp),%eax
 1002c9e:	0f b6 55 da          	movzbl -0x26(%ebp),%edx
 1002ca2:	89 d1                	mov    %edx,%ecx
 1002ca4:	c1 e1 04             	shl    $0x4,%ecx
 1002ca7:	89 c2                	mov    %eax,%edx
 1002ca9:	8d 04 d5 00 00 00 00 	lea    0x0(,%edx,8),%eax
 1002cb0:	89 c2                	mov    %eax,%edx
 1002cb2:	89 d0                	mov    %edx,%eax
 1002cb4:	c1 e0 05             	shl    $0x5,%eax
 1002cb7:	29 d0                	sub    %edx,%eax
 1002cb9:	01 c8                	add    %ecx,%eax
 1002cbb:	05 00 90 00 01       	add    $0x1009000,%eax
 1002cc0:	0f b6 40 0c          	movzbl 0xc(%eax),%eax
 1002cc4:	84 c0                	test   %al,%al
 1002cc6:	75 15                	jne    1002cdd <fopen+0x6d>
 1002cc8:	0f b6 55 da          	movzbl -0x26(%ebp),%edx
 1002ccc:	0f b6 45 db          	movzbl -0x25(%ebp),%eax
 1002cd0:	83 ec 08             	sub    $0x8,%esp
 1002cd3:	52                   	push   %edx
 1002cd4:	50                   	push   %eax
 1002cd5:	e8 f2 f9 ff ff       	call   10026cc <GetThisFileSys>
 1002cda:	83 c4 10             	add    $0x10,%esp
 1002cdd:	0f b6 45 db          	movzbl -0x25(%ebp),%eax
 1002ce1:	0f b6 55 da          	movzbl -0x26(%ebp),%edx
 1002ce5:	89 d1                	mov    %edx,%ecx
 1002ce7:	c1 e1 04             	shl    $0x4,%ecx
 1002cea:	89 c2                	mov    %eax,%edx
 1002cec:	8d 04 d5 00 00 00 00 	lea    0x0(,%edx,8),%eax
 1002cf3:	89 c2                	mov    %eax,%edx
 1002cf5:	89 d0                	mov    %edx,%eax
 1002cf7:	c1 e0 05             	shl    $0x5,%eax
 1002cfa:	29 d0                	sub    %edx,%eax
 1002cfc:	01 c8                	add    %ecx,%eax
 1002cfe:	05 00 90 00 01       	add    $0x1009000,%eax
 1002d03:	0f b6 40 0c          	movzbl 0xc(%eax),%eax
 1002d07:	0f b6 c0             	movzbl %al,%eax
 1002d0a:	83 f8 01             	cmp    $0x1,%eax
 1002d0d:	74 0e                	je     1002d1d <fopen+0xad>
 1002d0f:	83 f8 02             	cmp    $0x2,%eax
 1002d12:	0f 84 b0 04 00 00    	je     10031c8 <fopen+0x558>
 1002d18:	e9 c2 04 00 00       	jmp    10031df <fopen+0x56f>
 1002d1d:	0f b6 45 db          	movzbl -0x25(%ebp),%eax
 1002d21:	0f b6 55 da          	movzbl -0x26(%ebp),%edx
 1002d25:	89 d1                	mov    %edx,%ecx
 1002d27:	c1 e1 04             	shl    $0x4,%ecx
 1002d2a:	89 c2                	mov    %eax,%edx
 1002d2c:	8d 04 d5 00 00 00 00 	lea    0x0(,%edx,8),%eax
 1002d33:	89 c2                	mov    %eax,%edx
 1002d35:	89 d0                	mov    %edx,%eax
 1002d37:	c1 e0 05             	shl    $0x5,%eax
 1002d3a:	29 d0                	sub    %edx,%eax
 1002d3c:	01 c8                	add    %ecx,%eax
 1002d3e:	05 00 90 00 01       	add    $0x1009000,%eax
 1002d43:	8b 40 10             	mov    0x10(%eax),%eax
 1002d46:	a3 c0 a7 00 01       	mov    %eax,0x100a7c0
 1002d4b:	a1 c0 a7 00 01       	mov    0x100a7c0,%eax
 1002d50:	8b 40 5a             	mov    0x5a(%eax),%eax
 1002d53:	85 c0                	test   %eax,%eax
 1002d55:	75 30                	jne    1002d87 <fopen+0x117>
 1002d57:	a1 c0 a7 00 01       	mov    0x100a7c0,%eax
 1002d5c:	8b 15 c0 a7 00 01    	mov    0x100a7c0,%edx
 1002d62:	0f b7 52 0e          	movzwl 0xe(%edx),%edx
 1002d66:	0f b7 ca             	movzwl %dx,%ecx
 1002d69:	8b 15 c0 a7 00 01    	mov    0x100a7c0,%edx
 1002d6f:	0f b6 52 10          	movzbl 0x10(%edx),%edx
 1002d73:	0f b6 da             	movzbl %dl,%ebx
 1002d76:	8b 15 c0 a7 00 01    	mov    0x100a7c0,%edx
 1002d7c:	8b 52 24             	mov    0x24(%edx),%edx
 1002d7f:	0f af d3             	imul   %ebx,%edx
 1002d82:	01 ca                	add    %ecx,%edx
 1002d84:	89 50 5a             	mov    %edx,0x5a(%eax)
 1002d87:	a1 c0 a7 00 01       	mov    0x100a7c0,%eax
 1002d8c:	0f b6 40 0d          	movzbl 0xd(%eax),%eax
 1002d90:	0f b6 c0             	movzbl %al,%eax
 1002d93:	c1 e0 09             	shl    $0x9,%eax
 1002d96:	99                   	cltd   
 1002d97:	83 ec 04             	sub    $0x4,%esp
 1002d9a:	6a 01                	push   $0x1
 1002d9c:	52                   	push   %edx
 1002d9d:	50                   	push   %eax
 1002d9e:	e8 e5 08 00 00       	call   1003688 <malloc>
 1002da3:	83 c4 10             	add    $0x10,%esp
 1002da6:	89 45 d4             	mov    %eax,-0x2c(%ebp)
 1002da9:	0f b6 45 db          	movzbl -0x25(%ebp),%eax
 1002dad:	0f b6 55 da          	movzbl -0x26(%ebp),%edx
 1002db1:	89 d1                	mov    %edx,%ecx
 1002db3:	c1 e1 04             	shl    $0x4,%ecx
 1002db6:	89 c2                	mov    %eax,%edx
 1002db8:	8d 04 d5 00 00 00 00 	lea    0x0(,%edx,8),%eax
 1002dbf:	89 c2                	mov    %eax,%edx
 1002dc1:	89 d0                	mov    %edx,%eax
 1002dc3:	c1 e0 05             	shl    $0x5,%eax
 1002dc6:	29 d0                	sub    %edx,%eax
 1002dc8:	01 c8                	add    %ecx,%eax
 1002dca:	05 00 90 00 01       	add    $0x1009000,%eax
 1002dcf:	8b 40 10             	mov    0x10(%eax),%eax
 1002dd2:	89 45 d0             	mov    %eax,-0x30(%ebp)
 1002dd5:	83 45 d0 5e          	addl   $0x5e,-0x30(%ebp)
 1002dd9:	8b 45 d0             	mov    -0x30(%ebp),%eax
 1002ddc:	a3 dc dd 00 01       	mov    %eax,0x100dddc
 1002de1:	a1 c0 a7 00 01       	mov    0x100a7c0,%eax
 1002de6:	8b 40 5a             	mov    0x5a(%eax),%eax
 1002de9:	89 45 f0             	mov    %eax,-0x10(%ebp)
 1002dec:	0f b7 45 c4          	movzwl -0x3c(%ebp),%eax
 1002df0:	ff 75 f0             	pushl  -0x10(%ebp)
 1002df3:	6a 01                	push   $0x1
 1002df5:	ff 75 d4             	pushl  -0x2c(%ebp)
 1002df8:	50                   	push   %eax
 1002df9:	e8 88 fd ff ff       	call   1002b86 <ReadHDD>
 1002dfe:	83 c4 10             	add    $0x10,%esp
 1002e01:	c7 45 ec 00 00 00 00 	movl   $0x0,-0x14(%ebp)
 1002e08:	e9 a5 03 00 00       	jmp    10031b2 <fopen+0x542>
 1002e0d:	c7 45 e8 00 00 00 00 	movl   $0x0,-0x18(%ebp)
 1002e14:	eb 20                	jmp    1002e36 <fopen+0x1c6>
 1002e16:	8b 55 e8             	mov    -0x18(%ebp),%edx
 1002e19:	8b 45 d0             	mov    -0x30(%ebp),%eax
 1002e1c:	01 c2                	add    %eax,%edx
 1002e1e:	8b 4d e8             	mov    -0x18(%ebp),%ecx
 1002e21:	8b 45 ec             	mov    -0x14(%ebp),%eax
 1002e24:	01 c8                	add    %ecx,%eax
 1002e26:	89 c1                	mov    %eax,%ecx
 1002e28:	8b 45 d4             	mov    -0x2c(%ebp),%eax
 1002e2b:	01 c8                	add    %ecx,%eax
 1002e2d:	0f b6 00             	movzbl (%eax),%eax
 1002e30:	88 02                	mov    %al,(%edx)
 1002e32:	83 45 e8 01          	addl   $0x1,-0x18(%ebp)
 1002e36:	83 7d e8 20          	cmpl   $0x20,-0x18(%ebp)
 1002e3a:	75 da                	jne    1002e16 <fopen+0x1a6>
 1002e3c:	a1 dc dd 00 01       	mov    0x100dddc,%eax
 1002e41:	0f b6 00             	movzbl (%eax),%eax
 1002e44:	84 c0                	test   %al,%al
 1002e46:	0f 84 28 03 00 00    	je     1003174 <fopen+0x504>
 1002e4c:	8b 45 f4             	mov    -0xc(%ebp),%eax
 1002e4f:	0f b6 00             	movzbl (%eax),%eax
 1002e52:	3c 2f                	cmp    $0x2f,%al
 1002e54:	75 04                	jne    1002e5a <fopen+0x1ea>
 1002e56:	83 45 f4 01          	addl   $0x1,-0xc(%ebp)
 1002e5a:	8b 45 f4             	mov    -0xc(%ebp),%eax
 1002e5d:	89 45 cc             	mov    %eax,-0x34(%ebp)
 1002e60:	c7 45 e4 00 00 00 00 	movl   $0x0,-0x1c(%ebp)
 1002e67:	e9 f8 02 00 00       	jmp    1003164 <fopen+0x4f4>
 1002e6c:	8b 45 f4             	mov    -0xc(%ebp),%eax
 1002e6f:	0f b6 00             	movzbl (%eax),%eax
 1002e72:	3c 2e                	cmp    $0x2e,%al
 1002e74:	75 24                	jne    1002e9a <fopen+0x22a>
 1002e76:	83 45 f4 01          	addl   $0x1,-0xc(%ebp)
 1002e7a:	eb 0c                	jmp    1002e88 <fopen+0x218>
 1002e7c:	83 7d e4 0c          	cmpl   $0xc,-0x1c(%ebp)
 1002e80:	7e 02                	jle    1002e84 <fopen+0x214>
 1002e82:	eb 16                	jmp    1002e9a <fopen+0x22a>
 1002e84:	83 45 e4 01          	addl   $0x1,-0x1c(%ebp)
 1002e88:	8b 15 dc dd 00 01    	mov    0x100dddc,%edx
 1002e8e:	8b 45 e4             	mov    -0x1c(%ebp),%eax
 1002e91:	01 d0                	add    %edx,%eax
 1002e93:	0f b6 00             	movzbl (%eax),%eax
 1002e96:	3c 20                	cmp    $0x20,%al
 1002e98:	74 e2                	je     1002e7c <fopen+0x20c>
 1002e9a:	8b 45 f4             	mov    -0xc(%ebp),%eax
 1002e9d:	0f b6 00             	movzbl (%eax),%eax
 1002ea0:	3c 60                	cmp    $0x60,%al
 1002ea2:	7e 5f                	jle    1002f03 <fopen+0x293>
 1002ea4:	8b 45 f4             	mov    -0xc(%ebp),%eax
 1002ea7:	0f b6 00             	movzbl (%eax),%eax
 1002eaa:	3c 7a                	cmp    $0x7a,%al
 1002eac:	7f 55                	jg     1002f03 <fopen+0x293>
 1002eae:	8b 45 f4             	mov    -0xc(%ebp),%eax
 1002eb1:	0f b6 00             	movzbl (%eax),%eax
 1002eb4:	83 e8 20             	sub    $0x20,%eax
 1002eb7:	89 c2                	mov    %eax,%edx
 1002eb9:	8b 45 f4             	mov    -0xc(%ebp),%eax
 1002ebc:	88 10                	mov    %dl,(%eax)
 1002ebe:	8b 45 f4             	mov    -0xc(%ebp),%eax
 1002ec1:	0f b6 10             	movzbl (%eax),%edx
 1002ec4:	8b 0d dc dd 00 01    	mov    0x100dddc,%ecx
 1002eca:	8b 45 e4             	mov    -0x1c(%ebp),%eax
 1002ecd:	01 c8                	add    %ecx,%eax
 1002ecf:	0f b6 00             	movzbl (%eax),%eax
 1002ed2:	38 c2                	cmp    %al,%dl
 1002ed4:	74 1b                	je     1002ef1 <fopen+0x281>
 1002ed6:	8b 45 f4             	mov    -0xc(%ebp),%eax
 1002ed9:	0f b6 00             	movzbl (%eax),%eax
 1002edc:	83 c0 20             	add    $0x20,%eax
 1002edf:	89 c2                	mov    %eax,%edx
 1002ee1:	8b 45 f4             	mov    -0xc(%ebp),%eax
 1002ee4:	88 10                	mov    %dl,(%eax)
 1002ee6:	8b 45 cc             	mov    -0x34(%ebp),%eax
 1002ee9:	89 45 f4             	mov    %eax,-0xc(%ebp)
 1002eec:	e9 81 02 00 00       	jmp    1003172 <fopen+0x502>
 1002ef1:	8b 45 f4             	mov    -0xc(%ebp),%eax
 1002ef4:	0f b6 00             	movzbl (%eax),%eax
 1002ef7:	83 c0 20             	add    $0x20,%eax
 1002efa:	89 c2                	mov    %eax,%edx
 1002efc:	8b 45 f4             	mov    -0xc(%ebp),%eax
 1002eff:	88 10                	mov    %dl,(%eax)
 1002f01:	eb 23                	jmp    1002f26 <fopen+0x2b6>
 1002f03:	8b 45 f4             	mov    -0xc(%ebp),%eax
 1002f06:	0f b6 10             	movzbl (%eax),%edx
 1002f09:	8b 0d dc dd 00 01    	mov    0x100dddc,%ecx
 1002f0f:	8b 45 e4             	mov    -0x1c(%ebp),%eax
 1002f12:	01 c8                	add    %ecx,%eax
 1002f14:	0f b6 00             	movzbl (%eax),%eax
 1002f17:	38 c2                	cmp    %al,%dl
 1002f19:	74 0b                	je     1002f26 <fopen+0x2b6>
 1002f1b:	8b 45 cc             	mov    -0x34(%ebp),%eax
 1002f1e:	89 45 f4             	mov    %eax,-0xc(%ebp)
 1002f21:	e9 4c 02 00 00       	jmp    1003172 <fopen+0x502>
 1002f26:	83 45 e4 01          	addl   $0x1,-0x1c(%ebp)
 1002f2a:	83 45 f4 01          	addl   $0x1,-0xc(%ebp)
 1002f2e:	8b 45 f4             	mov    -0xc(%ebp),%eax
 1002f31:	0f b6 00             	movzbl (%eax),%eax
 1002f34:	84 c0                	test   %al,%al
 1002f36:	0f 85 d6 01 00 00    	jne    1003112 <fopen+0x4a2>
 1002f3c:	a1 dc dd 00 01       	mov    0x100dddc,%eax
 1002f41:	0f b6 40 0b          	movzbl 0xb(%eax),%eax
 1002f45:	3c 20                	cmp    $0x20,%al
 1002f47:	0f 85 c5 01 00 00    	jne    1003112 <fopen+0x4a2>
 1002f4d:	a1 c0 a7 00 01       	mov    0x100a7c0,%eax
 1002f52:	0f b6 40 0d          	movzbl 0xd(%eax),%eax
 1002f56:	0f b6 c0             	movzbl %al,%eax
 1002f59:	c1 e0 09             	shl    $0x9,%eax
 1002f5c:	89 c2                	mov    %eax,%edx
 1002f5e:	8b 45 d4             	mov    -0x2c(%ebp),%eax
 1002f61:	83 ec 04             	sub    $0x4,%esp
 1002f64:	6a 01                	push   $0x1
 1002f66:	52                   	push   %edx
 1002f67:	50                   	push   %eax
 1002f68:	e8 a3 0a 00 00       	call   1003a10 <free>
 1002f6d:	83 c4 10             	add    $0x10,%esp
 1002f70:	c7 45 e0 00 00 00 00 	movl   $0x0,-0x20(%ebp)
 1002f77:	eb 1d                	jmp    1002f96 <fopen+0x326>
 1002f79:	8b 15 dc dd 00 01    	mov    0x100dddc,%edx
 1002f7f:	8b 45 e0             	mov    -0x20(%ebp),%eax
 1002f82:	01 d0                	add    %edx,%eax
 1002f84:	0f b6 00             	movzbl (%eax),%eax
 1002f87:	8b 55 e0             	mov    -0x20(%ebp),%edx
 1002f8a:	81 c2 80 a6 00 01    	add    $0x100a680,%edx
 1002f90:	88 02                	mov    %al,(%edx)
 1002f92:	83 45 e0 01          	addl   $0x1,-0x20(%ebp)
 1002f96:	83 7d e0 0b          	cmpl   $0xb,-0x20(%ebp)
 1002f9a:	75 dd                	jne    1002f79 <fopen+0x309>
 1002f9c:	a1 dc dd 00 01       	mov    0x100dddc,%eax
 1002fa1:	8b 40 1c             	mov    0x1c(%eax),%eax
 1002fa4:	ba 00 00 00 00       	mov    $0x0,%edx
 1002fa9:	a3 b8 a7 00 01       	mov    %eax,0x100a7b8
 1002fae:	89 15 bc a7 00 01    	mov    %edx,0x100a7bc
 1002fb4:	a1 dc dd 00 01       	mov    0x100dddc,%eax
 1002fb9:	0f b6 40 0b          	movzbl 0xb(%eax),%eax
 1002fbd:	a2 80 a7 00 01       	mov    %al,0x100a780
 1002fc2:	a1 dc dd 00 01       	mov    0x100dddc,%eax
 1002fc7:	0f b7 40 14          	movzwl 0x14(%eax),%eax
 1002fcb:	0f b7 d0             	movzwl %ax,%edx
 1002fce:	a1 dc dd 00 01       	mov    0x100dddc,%eax
 1002fd3:	0f b7 40 1a          	movzwl 0x1a(%eax),%eax
 1002fd7:	0f b7 c0             	movzwl %ax,%eax
 1002fda:	01 d0                	add    %edx,%eax
 1002fdc:	83 e8 02             	sub    $0x2,%eax
 1002fdf:	c1 e0 03             	shl    $0x3,%eax
 1002fe2:	89 c2                	mov    %eax,%edx
 1002fe4:	a1 c0 a7 00 01       	mov    0x100a7c0,%eax
 1002fe9:	8b 40 5a             	mov    0x5a(%eax),%eax
 1002fec:	01 d0                	add    %edx,%eax
 1002fee:	a3 b0 a7 00 01       	mov    %eax,0x100a7b0
 1002ff3:	8b 45 f0             	mov    -0x10(%ebp),%eax
 1002ff6:	a3 b4 a7 00 01       	mov    %eax,0x100a7b4
 1002ffb:	a1 b8 a7 00 01       	mov    0x100a7b8,%eax
 1003000:	8b 15 bc a7 00 01    	mov    0x100a7bc,%edx
 1003006:	83 ec 04             	sub    $0x4,%esp
 1003009:	6a 01                	push   $0x1
 100300b:	52                   	push   %edx
 100300c:	50                   	push   %eax
 100300d:	e8 76 06 00 00       	call   1003688 <malloc>
 1003012:	83 c4 10             	add    $0x10,%esp
 1003015:	89 45 d4             	mov    %eax,-0x2c(%ebp)
 1003018:	c7 45 dc 00 00 00 00 	movl   $0x0,-0x24(%ebp)
 100301f:	eb 33                	jmp    1003054 <fopen+0x3e4>
 1003021:	a1 b0 a7 00 01       	mov    0x100a7b0,%eax
 1003026:	8b 55 dc             	mov    -0x24(%ebp),%edx
 1003029:	c1 ea 0c             	shr    $0xc,%edx
 100302c:	8d 0c 10             	lea    (%eax,%edx,1),%ecx
 100302f:	a1 c0 a7 00 01       	mov    0x100a7c0,%eax
 1003034:	0f b6 40 0d          	movzbl 0xd(%eax),%eax
 1003038:	0f b6 d0             	movzbl %al,%edx
 100303b:	0f b7 45 c4          	movzwl -0x3c(%ebp),%eax
 100303f:	51                   	push   %ecx
 1003040:	52                   	push   %edx
 1003041:	ff 75 d4             	pushl  -0x2c(%ebp)
 1003044:	50                   	push   %eax
 1003045:	e8 3c fb ff ff       	call   1002b86 <ReadHDD>
 100304a:	83 c4 10             	add    $0x10,%esp
 100304d:	81 45 dc 00 10 00 00 	addl   $0x1000,-0x24(%ebp)
 1003054:	8b 4d dc             	mov    -0x24(%ebp),%ecx
 1003057:	bb 00 00 00 00       	mov    $0x0,%ebx
 100305c:	a1 b8 a7 00 01       	mov    0x100a7b8,%eax
 1003061:	8b 15 bc a7 00 01    	mov    0x100a7bc,%edx
 1003067:	39 d3                	cmp    %edx,%ebx
 1003069:	77 b6                	ja     1003021 <fopen+0x3b1>
 100306b:	39 d3                	cmp    %edx,%ebx
 100306d:	72 04                	jb     1003073 <fopen+0x403>
 100306f:	39 c1                	cmp    %eax,%ecx
 1003071:	73 ae                	jae    1003021 <fopen+0x3b1>
 1003073:	83 ec 0c             	sub    $0xc,%esp
 1003076:	ff 75 d4             	pushl  -0x2c(%ebp)
 1003079:	e8 bf f5 ff ff       	call   100263d <FUseGetFileFormat>
 100307e:	83 c4 10             	add    $0x10,%esp
 1003081:	0f be c0             	movsbl %al,%eax
 1003084:	83 ec 08             	sub    $0x8,%esp
 1003087:	ff 75 d4             	pushl  -0x2c(%ebp)
 100308a:	50                   	push   %eax
 100308b:	e8 3a f3 ff ff       	call   10023ca <FUseHeaderExtract>
 1003090:	83 c4 10             	add    $0x10,%esp
 1003093:	8b 15 a8 a7 00 01    	mov    0x100a7a8,%edx
 1003099:	a1 ac a7 00 01       	mov    0x100a7ac,%eax
 100309e:	01 d0                	add    %edx,%eax
 10030a0:	ba 00 00 00 00       	mov    $0x0,%edx
 10030a5:	83 ec 04             	sub    $0x4,%esp
 10030a8:	6a 01                	push   $0x1
 10030aa:	52                   	push   %edx
 10030ab:	50                   	push   %eax
 10030ac:	e8 d7 05 00 00       	call   1003688 <malloc>
 10030b1:	83 c4 10             	add    $0x10,%esp
 10030b4:	89 45 d0             	mov    %eax,-0x30(%ebp)
 10030b7:	8b 45 d4             	mov    -0x2c(%ebp),%eax
 10030ba:	83 ec 08             	sub    $0x8,%esp
 10030bd:	6a 08                	push   $0x8
 10030bf:	50                   	push   %eax
 10030c0:	e8 0e d1 ff ff       	call   10001d3 <HexInAsciiSz>
 10030c5:	83 c4 10             	add    $0x10,%esp
 10030c8:	83 ec 0c             	sub    $0xc,%esp
 10030cb:	68 0f 66 00 01       	push   $0x100660f
 10030d0:	e8 ca d1 ff ff       	call   100029f <printf>
 10030d5:	83 c4 10             	add    $0x10,%esp
 10030d8:	a1 a8 a7 00 01       	mov    0x100a7a8,%eax
 10030dd:	83 ec 08             	sub    $0x8,%esp
 10030e0:	6a 08                	push   $0x8
 10030e2:	50                   	push   %eax
 10030e3:	e8 eb d0 ff ff       	call   10001d3 <HexInAsciiSz>
 10030e8:	83 c4 10             	add    $0x10,%esp
 10030eb:	83 ec 0c             	sub    $0xc,%esp
 10030ee:	68 16 66 00 01       	push   $0x1006616
 10030f3:	e8 a7 d1 ff ff       	call   100029f <printf>
 10030f8:	83 c4 10             	add    $0x10,%esp
 10030fb:	a1 ac a7 00 01       	mov    0x100a7ac,%eax
 1003100:	83 ec 08             	sub    $0x8,%esp
 1003103:	6a 08                	push   $0x8
 1003105:	50                   	push   %eax
 1003106:	e8 c8 d0 ff ff       	call   10001d3 <HexInAsciiSz>
 100310b:	83 c4 10             	add    $0x10,%esp
 100310e:	fa                   	cli    
 100310f:	f4                   	hlt    
 1003110:	eb fe                	jmp    1003110 <fopen+0x4a0>
 1003112:	8b 45 f4             	mov    -0xc(%ebp),%eax
 1003115:	0f b6 00             	movzbl (%eax),%eax
 1003118:	3c 2f                	cmp    $0x2f,%al
 100311a:	75 48                	jne    1003164 <fopen+0x4f4>
 100311c:	a1 dc dd 00 01       	mov    0x100dddc,%eax
 1003121:	0f b6 40 0b          	movzbl 0xb(%eax),%eax
 1003125:	3c 10                	cmp    $0x10,%al
 1003127:	75 3b                	jne    1003164 <fopen+0x4f4>
 1003129:	c7 45 ec e0 01 00 00 	movl   $0x1e0,-0x14(%ebp)
 1003130:	a1 dc dd 00 01       	mov    0x100dddc,%eax
 1003135:	0f b7 40 14          	movzwl 0x14(%eax),%eax
 1003139:	0f b7 d0             	movzwl %ax,%edx
 100313c:	a1 dc dd 00 01       	mov    0x100dddc,%eax
 1003141:	0f b7 40 1a          	movzwl 0x1a(%eax),%eax
 1003145:	0f b7 c0             	movzwl %ax,%eax
 1003148:	01 d0                	add    %edx,%eax
 100314a:	83 e8 02             	sub    $0x2,%eax
 100314d:	c1 e0 03             	shl    $0x3,%eax
 1003150:	89 c2                	mov    %eax,%edx
 1003152:	a1 c0 a7 00 01       	mov    0x100a7c0,%eax
 1003157:	8b 40 5a             	mov    0x5a(%eax),%eax
 100315a:	01 d0                	add    %edx,%eax
 100315c:	83 e8 01             	sub    $0x1,%eax
 100315f:	89 45 f0             	mov    %eax,-0x10(%ebp)
 1003162:	eb 0e                	jmp    1003172 <fopen+0x502>
 1003164:	8b 45 f4             	mov    -0xc(%ebp),%eax
 1003167:	0f b6 00             	movzbl (%eax),%eax
 100316a:	3c 2f                	cmp    $0x2f,%al
 100316c:	0f 85 fa fc ff ff    	jne    1002e6c <fopen+0x1fc>
 1003172:	eb 3a                	jmp    10031ae <fopen+0x53e>
 1003174:	a1 c0 a7 00 01       	mov    0x100a7c0,%eax
 1003179:	0f b6 40 0d          	movzbl 0xd(%eax),%eax
 100317d:	0f b6 c0             	movzbl %al,%eax
 1003180:	c1 e0 09             	shl    $0x9,%eax
 1003183:	89 c2                	mov    %eax,%edx
 1003185:	8b 45 d4             	mov    -0x2c(%ebp),%eax
 1003188:	83 ec 04             	sub    $0x4,%esp
 100318b:	6a 01                	push   $0x1
 100318d:	52                   	push   %edx
 100318e:	50                   	push   %eax
 100318f:	e8 7c 08 00 00       	call   1003a10 <free>
 1003194:	83 c4 10             	add    $0x10,%esp
 1003197:	83 ec 0c             	sub    $0xc,%esp
 100319a:	68 1d 66 00 01       	push   $0x100661d
 100319f:	e8 fb d0 ff ff       	call   100029f <printf>
 10031a4:	83 c4 10             	add    $0x10,%esp
 10031a7:	b8 02 00 00 00       	mov    $0x2,%eax
 10031ac:	eb 36                	jmp    10031e4 <fopen+0x574>
 10031ae:	83 45 ec 20          	addl   $0x20,-0x14(%ebp)
 10031b2:	81 7d ec 00 02 00 00 	cmpl   $0x200,-0x14(%ebp)
 10031b9:	0f 85 4e fc ff ff    	jne    1002e0d <fopen+0x19d>
 10031bf:	83 45 f0 01          	addl   $0x1,-0x10(%ebp)
 10031c3:	e9 24 fc ff ff       	jmp    1002dec <fopen+0x17c>
 10031c8:	83 ec 0c             	sub    $0xc,%esp
 10031cb:	68 2d 66 00 01       	push   $0x100662d
 10031d0:	e8 ca d0 ff ff       	call   100029f <printf>
 10031d5:	83 c4 10             	add    $0x10,%esp
 10031d8:	b8 03 00 00 00       	mov    $0x3,%eax
 10031dd:	eb 05                	jmp    10031e4 <fopen+0x574>
 10031df:	b8 01 00 00 00       	mov    $0x1,%eax
 10031e4:	8b 5d fc             	mov    -0x4(%ebp),%ebx
 10031e7:	c9                   	leave  
 10031e8:	c3                   	ret    

010031e9 <MemSet_Frame>:
 10031e9:	55                   	push   %ebp
 10031ea:	89 e5                	mov    %esp,%ebp
 10031ec:	83 ec 14             	sub    $0x14,%esp
 10031ef:	8b 45 0c             	mov    0xc(%ebp),%eax
 10031f2:	88 45 ec             	mov    %al,-0x14(%ebp)
 10031f5:	c7 45 fc 00 00 00 00 	movl   $0x0,-0x4(%ebp)
 10031fc:	8b 45 08             	mov    0x8(%ebp),%eax
 10031ff:	89 45 f8             	mov    %eax,-0x8(%ebp)
 1003202:	8b 45 18             	mov    0x18(%ebp),%eax
 1003205:	89 45 fc             	mov    %eax,-0x4(%ebp)
 1003208:	8b 45 14             	mov    0x14(%ebp),%eax
 100320b:	83 e0 07             	and    $0x7,%eax
 100320e:	c1 e0 09             	shl    $0x9,%eax
 1003211:	01 45 fc             	add    %eax,-0x4(%ebp)
 1003214:	8b 45 10             	mov    0x10(%ebp),%eax
 1003217:	0f b6 c0             	movzbl %al,%eax
 100321a:	01 c0                	add    %eax,%eax
 100321c:	01 45 fc             	add    %eax,-0x4(%ebp)
 100321f:	80 7d ec 00          	cmpb   $0x0,-0x14(%ebp)
 1003223:	74 04                	je     1003229 <MemSet_Frame+0x40>
 1003225:	83 45 fc 01          	addl   $0x1,-0x4(%ebp)
 1003229:	8b 45 f8             	mov    -0x8(%ebp),%eax
 100322c:	8b 55 fc             	mov    -0x4(%ebp),%edx
 100322f:	89 10                	mov    %edx,(%eax)
 1003231:	c9                   	leave  
 1003232:	c3                   	ret    

01003233 <MemSet_PDE>:
 1003233:	55                   	push   %ebp
 1003234:	89 e5                	mov    %esp,%ebp
 1003236:	83 ec 14             	sub    $0x14,%esp
 1003239:	8b 45 0c             	mov    0xc(%ebp),%eax
 100323c:	88 45 ec             	mov    %al,-0x14(%ebp)
 100323f:	c7 45 fc 00 00 00 00 	movl   $0x0,-0x4(%ebp)
 1003246:	8b 45 18             	mov    0x18(%ebp),%eax
 1003249:	89 45 f4             	mov    %eax,-0xc(%ebp)
 100324c:	8b 45 08             	mov    0x8(%ebp),%eax
 100324f:	89 45 f0             	mov    %eax,-0x10(%ebp)
 1003252:	c7 45 f8 00 00 00 00 	movl   $0x0,-0x8(%ebp)
 1003259:	8b 45 18             	mov    0x18(%ebp),%eax
 100325c:	89 45 fc             	mov    %eax,-0x4(%ebp)
 100325f:	8b 45 14             	mov    0x14(%ebp),%eax
 1003262:	83 e0 07             	and    $0x7,%eax
 1003265:	c1 e0 09             	shl    $0x9,%eax
 1003268:	01 45 fc             	add    %eax,-0x4(%ebp)
 100326b:	8b 45 10             	mov    0x10(%ebp),%eax
 100326e:	25 df 00 00 00       	and    $0xdf,%eax
 1003273:	01 c0                	add    %eax,%eax
 1003275:	01 45 fc             	add    %eax,-0x4(%ebp)
 1003278:	80 7d ec 00          	cmpb   $0x0,-0x14(%ebp)
 100327c:	74 04                	je     1003282 <MemSet_PDE+0x4f>
 100327e:	83 45 fc 01          	addl   $0x1,-0x4(%ebp)
 1003282:	8b 45 f0             	mov    -0x10(%ebp),%eax
 1003285:	8b 55 fc             	mov    -0x4(%ebp),%edx
 1003288:	89 10                	mov    %edx,(%eax)
 100328a:	81 7d f8 00 10 00 00 	cmpl   $0x1000,-0x8(%ebp)
 1003291:	74 02                	je     1003295 <MemSet_PDE+0x62>
 1003293:	eb 1b                	jmp    10032b0 <MemSet_PDE+0x7d>
 1003295:	8b 45 f8             	mov    -0x8(%ebp),%eax
 1003298:	8d 14 85 00 00 00 00 	lea    0x0(,%eax,4),%edx
 100329f:	8b 45 f4             	mov    -0xc(%ebp),%eax
 10032a2:	01 d0                	add    %edx,%eax
 10032a4:	c7 00 00 00 00 00    	movl   $0x0,(%eax)
 10032aa:	83 45 f8 01          	addl   $0x1,-0x8(%ebp)
 10032ae:	eb da                	jmp    100328a <MemSet_PDE+0x57>
 10032b0:	c9                   	leave  
 10032b1:	c3                   	ret    

010032b2 <MemSet_CR3>:
 10032b2:	55                   	push   %ebp
 10032b3:	89 e5                	mov    %esp,%ebp
 10032b5:	83 ec 08             	sub    $0x8,%esp
 10032b8:	8b 55 0c             	mov    0xc(%ebp),%edx
 10032bb:	8b 45 10             	mov    0x10(%ebp),%eax
 10032be:	88 55 fc             	mov    %dl,-0x4(%ebp)
 10032c1:	88 45 f8             	mov    %al,-0x8(%ebp)
 10032c4:	80 7d fc 00          	cmpb   $0x0,-0x4(%ebp)
 10032c8:	74 09                	je     10032d3 <MemSet_CR3+0x21>
 10032ca:	8b 45 08             	mov    0x8(%ebp),%eax
 10032cd:	83 c0 04             	add    $0x4,%eax
 10032d0:	89 45 08             	mov    %eax,0x8(%ebp)
 10032d3:	80 7d f8 00          	cmpb   $0x0,-0x8(%ebp)
 10032d7:	74 09                	je     10032e2 <MemSet_CR3+0x30>
 10032d9:	8b 45 08             	mov    0x8(%ebp),%eax
 10032dc:	83 c0 08             	add    $0x8,%eax
 10032df:	89 45 08             	mov    %eax,0x8(%ebp)
 10032e2:	8b 45 08             	mov    0x8(%ebp),%eax
 10032e5:	0f 22 d8             	mov    %eax,%cr3
 10032e8:	c9                   	leave  
 10032e9:	c3                   	ret    

010032ea <MemSet_PageTrONOFF>:
 10032ea:	55                   	push   %ebp
 10032eb:	89 e5                	mov    %esp,%ebp
 10032ed:	0f 20 e0             	mov    %cr4,%eax
 10032f0:	0f 22 e0             	mov    %eax,%cr4
 10032f3:	0f 20 c0             	mov    %cr0,%eax
 10032f6:	0d 00 00 00 80       	or     $0x80000000,%eax
 10032fb:	0f 22 c0             	mov    %eax,%cr0
 10032fe:	5d                   	pop    %ebp
 10032ff:	c3                   	ret    

01003300 <get_memory_size>:
 1003300:	55                   	push   %ebp
 1003301:	89 e5                	mov    %esp,%ebp
 1003303:	83 ec 18             	sub    $0x18,%esp
 1003306:	a1 40 5d 00 01       	mov    0x1005d40,%eax
 100330b:	3d 78 56 34 12       	cmp    $0x12345678,%eax
 1003310:	75 17                	jne    1003329 <get_memory_size+0x29>
 1003312:	83 ec 0c             	sub    $0xc,%esp
 1003315:	68 45 66 00 01       	push   $0x1006645
 100331a:	e8 80 cf ff ff       	call   100029f <printf>
 100331f:	83 c4 10             	add    $0x10,%esp
 1003322:	b8 00 00 00 00       	mov    $0x0,%eax
 1003327:	eb 2b                	jmp    1003354 <get_memory_size+0x54>
 1003329:	c7 45 f4 00 00 00 04 	movl   $0x4000000,-0xc(%ebp)
 1003330:	8b 45 f4             	mov    -0xc(%ebp),%eax
 1003333:	c7 00 23 87 12 98    	movl   $0x98128723,(%eax)
 1003339:	8b 45 f4             	mov    -0xc(%ebp),%eax
 100333c:	8b 00                	mov    (%eax),%eax
 100333e:	3d 23 87 12 98       	cmp    $0x98128723,%eax
 1003343:	74 06                	je     100334b <get_memory_size+0x4b>
 1003345:	90                   	nop
 1003346:	8b 45 f4             	mov    -0xc(%ebp),%eax
 1003349:	eb 09                	jmp    1003354 <get_memory_size+0x54>
 100334b:	81 45 f4 00 00 40 00 	addl   $0x400000,-0xc(%ebp)
 1003352:	eb dc                	jmp    1003330 <get_memory_size+0x30>
 1003354:	c9                   	leave  
 1003355:	c3                   	ret    

01003356 <SMM>:
 1003356:	55                   	push   %ebp
 1003357:	89 e5                	mov    %esp,%ebp
 1003359:	83 ec 38             	sub    $0x38,%esp
 100335c:	8b 45 08             	mov    0x8(%ebp),%eax
 100335f:	88 45 d4             	mov    %al,-0x2c(%ebp)
 1003362:	c7 45 f4 00 00 30 00 	movl   $0x300000,-0xc(%ebp)
 1003369:	c7 45 e8 00 00 00 00 	movl   $0x0,-0x18(%ebp)
 1003370:	c7 45 e4 00 00 00 00 	movl   $0x0,-0x1c(%ebp)
 1003377:	0f be 45 d4          	movsbl -0x2c(%ebp),%eax
 100337b:	83 f8 50             	cmp    $0x50,%eax
 100337e:	74 05                	je     1003385 <SMM+0x2f>
 1003380:	e9 28 01 00 00       	jmp    10034ad <SMM+0x157>
 1003385:	83 ec 0c             	sub    $0xc,%esp
 1003388:	68 4b 66 00 01       	push   $0x100664b
 100338d:	e8 0d cf ff ff       	call   100029f <printf>
 1003392:	83 c4 10             	add    $0x10,%esp
 1003395:	e9 05 01 00 00       	jmp    100349f <SMM+0x149>
 100339a:	8b 45 f4             	mov    -0xc(%ebp),%eax
 100339d:	8b 00                	mov    (%eax),%eax
 100339f:	25 00 f0 ff ff       	and    $0xfffff000,%eax
 10033a4:	89 45 f0             	mov    %eax,-0x10(%ebp)
 10033a7:	8b 45 f4             	mov    -0xc(%ebp),%eax
 10033aa:	8b 00                	mov    (%eax),%eax
 10033ac:	83 e0 01             	and    $0x1,%eax
 10033af:	85 c0                	test   %eax,%eax
 10033b1:	0f 84 dd 00 00 00    	je     1003494 <SMM+0x13e>
 10033b7:	8b 45 f0             	mov    -0x10(%ebp),%eax
 10033ba:	8b 00                	mov    (%eax),%eax
 10033bc:	83 e0 01             	and    $0x1,%eax
 10033bf:	85 c0                	test   %eax,%eax
 10033c1:	75 12                	jne    10033d5 <SMM+0x7f>
 10033c3:	eb 04                	jmp    10033c9 <SMM+0x73>
 10033c5:	83 45 f0 04          	addl   $0x4,-0x10(%ebp)
 10033c9:	8b 45 f0             	mov    -0x10(%ebp),%eax
 10033cc:	8b 00                	mov    (%eax),%eax
 10033ce:	83 e0 01             	and    $0x1,%eax
 10033d1:	85 c0                	test   %eax,%eax
 10033d3:	74 f0                	je     10033c5 <SMM+0x6f>
 10033d5:	8b 45 f0             	mov    -0x10(%ebp),%eax
 10033d8:	8b 00                	mov    (%eax),%eax
 10033da:	25 00 f0 ff ff       	and    $0xfffff000,%eax
 10033df:	89 45 e0             	mov    %eax,-0x20(%ebp)
 10033e2:	c7 45 e8 00 00 00 00 	movl   $0x0,-0x18(%ebp)
 10033e9:	eb 0b                	jmp    10033f6 <SMM+0xa0>
 10033eb:	83 45 f0 04          	addl   $0x4,-0x10(%ebp)
 10033ef:	81 45 e8 00 10 00 00 	addl   $0x1000,-0x18(%ebp)
 10033f6:	8b 45 f0             	mov    -0x10(%ebp),%eax
 10033f9:	8b 00                	mov    (%eax),%eax
 10033fb:	83 e0 01             	and    $0x1,%eax
 10033fe:	85 c0                	test   %eax,%eax
 1003400:	75 e9                	jne    10033eb <SMM+0x95>
 1003402:	83 6d f0 04          	subl   $0x4,-0x10(%ebp)
 1003406:	8b 45 f0             	mov    -0x10(%ebp),%eax
 1003409:	8b 00                	mov    (%eax),%eax
 100340b:	25 00 f0 ff ff       	and    $0xfffff000,%eax
 1003410:	89 45 dc             	mov    %eax,-0x24(%ebp)
 1003413:	8b 45 ec             	mov    -0x14(%ebp),%eax
 1003416:	3b 45 dc             	cmp    -0x24(%ebp),%eax
 1003419:	74 79                	je     1003494 <SMM+0x13e>
 100341b:	83 ec 0c             	sub    $0xc,%esp
 100341e:	68 58 66 00 01       	push   $0x1006658
 1003423:	e8 77 ce ff ff       	call   100029f <printf>
 1003428:	83 c4 10             	add    $0x10,%esp
 100342b:	8b 45 e0             	mov    -0x20(%ebp),%eax
 100342e:	83 ec 08             	sub    $0x8,%esp
 1003431:	6a 08                	push   $0x8
 1003433:	50                   	push   %eax
 1003434:	e8 9a cd ff ff       	call   10001d3 <HexInAsciiSz>
 1003439:	83 c4 10             	add    $0x10,%esp
 100343c:	83 ec 0c             	sub    $0xc,%esp
 100343f:	68 5c 66 00 01       	push   $0x100665c
 1003444:	e8 56 ce ff ff       	call   100029f <printf>
 1003449:	83 c4 10             	add    $0x10,%esp
 100344c:	8b 45 dc             	mov    -0x24(%ebp),%eax
 100344f:	83 ec 08             	sub    $0x8,%esp
 1003452:	6a 08                	push   $0x8
 1003454:	50                   	push   %eax
 1003455:	e8 79 cd ff ff       	call   10001d3 <HexInAsciiSz>
 100345a:	83 c4 10             	add    $0x10,%esp
 100345d:	83 ec 0c             	sub    $0xc,%esp
 1003460:	68 63 66 00 01       	push   $0x1006663
 1003465:	e8 35 ce ff ff       	call   100029f <printf>
 100346a:	83 c4 10             	add    $0x10,%esp
 100346d:	8b 45 e8             	mov    -0x18(%ebp),%eax
 1003470:	83 ec 08             	sub    $0x8,%esp
 1003473:	6a 08                	push   $0x8
 1003475:	50                   	push   %eax
 1003476:	e8 58 cd ff ff       	call   10001d3 <HexInAsciiSz>
 100347b:	83 c4 10             	add    $0x10,%esp
 100347e:	83 ec 0c             	sub    $0xc,%esp
 1003481:	68 68 66 00 01       	push   $0x1006668
 1003486:	e8 14 ce ff ff       	call   100029f <printf>
 100348b:	83 c4 10             	add    $0x10,%esp
 100348e:	8b 45 dc             	mov    -0x24(%ebp),%eax
 1003491:	89 45 ec             	mov    %eax,-0x14(%ebp)
 1003494:	83 45 f4 04          	addl   $0x4,-0xc(%ebp)
 1003498:	81 45 e4 00 10 00 00 	addl   $0x1000,-0x1c(%ebp)
 100349f:	81 7d f4 00 10 30 00 	cmpl   $0x301000,-0xc(%ebp)
 10034a6:	0f 85 ee fe ff ff    	jne    100339a <SMM+0x44>
 10034ac:	90                   	nop
 10034ad:	83 ec 0c             	sub    $0xc,%esp
 10034b0:	68 6e 62 00 01       	push   $0x100626e
 10034b5:	e8 e5 cd ff ff       	call   100029f <printf>
 10034ba:	83 c4 10             	add    $0x10,%esp
 10034bd:	c9                   	leave  
 10034be:	c3                   	ret    

010034bf <set_memory_map>:
 10034bf:	55                   	push   %ebp
 10034c0:	89 e5                	mov    %esp,%ebp
 10034c2:	53                   	push   %ebx
 10034c3:	83 ec 24             	sub    $0x24,%esp
 10034c6:	c7 45 f4 00 00 10 00 	movl   $0x100000,-0xc(%ebp)
 10034cd:	c7 45 f0 00 00 30 00 	movl   $0x300000,-0x10(%ebp)
 10034d4:	c7 45 e4 00 00 00 00 	movl   $0x0,-0x1c(%ebp)
 10034db:	c7 45 ec 00 00 00 00 	movl   $0x0,-0x14(%ebp)
 10034e2:	c7 45 e8 00 00 00 00 	movl   $0x0,-0x18(%ebp)
 10034e9:	a1 c8 a7 00 01       	mov    0x100a7c8,%eax
 10034ee:	8b 15 cc a7 00 01    	mov    0x100a7cc,%edx
 10034f4:	09 d0                	or     %edx,%eax
 10034f6:	85 c0                	test   %eax,%eax
 10034f8:	75 14                	jne    100350e <set_memory_map+0x4f>
 10034fa:	83 ec 0c             	sub    $0xc,%esp
 10034fd:	68 70 66 00 01       	push   $0x1006670
 1003502:	e8 98 cd ff ff       	call   100029f <printf>
 1003507:	83 c4 10             	add    $0x10,%esp
 100350a:	fa                   	cli    
 100350b:	f4                   	hlt    
 100350c:	eb fe                	jmp    100350c <set_memory_map+0x4d>
 100350e:	e9 81 00 00 00       	jmp    1003594 <set_memory_map+0xd5>
 1003513:	8b 45 f0             	mov    -0x10(%ebp),%eax
 1003516:	8b 00                	mov    (%eax),%eax
 1003518:	83 e0 01             	and    $0x1,%eax
 100351b:	85 c0                	test   %eax,%eax
 100351d:	74 69                	je     1003588 <set_memory_map+0xc9>
 100351f:	c7 45 ec 00 00 00 00 	movl   $0x0,-0x14(%ebp)
 1003526:	8b 45 f0             	mov    -0x10(%ebp),%eax
 1003529:	8b 00                	mov    (%eax),%eax
 100352b:	25 00 f0 ff ff       	and    $0xfffff000,%eax
 1003530:	89 45 e4             	mov    %eax,-0x1c(%ebp)
 1003533:	eb 48                	jmp    100357d <set_memory_map+0xbe>
 1003535:	8b 45 ec             	mov    -0x14(%ebp),%eax
 1003538:	8d 14 85 00 00 00 00 	lea    0x0(,%eax,4),%edx
 100353f:	8b 45 e4             	mov    -0x1c(%ebp),%eax
 1003542:	01 d0                	add    %edx,%eax
 1003544:	8b 00                	mov    (%eax),%eax
 1003546:	83 e0 01             	and    $0x1,%eax
 1003549:	85 c0                	test   %eax,%eax
 100354b:	74 1e                	je     100356b <set_memory_map+0xac>
 100354d:	8b 45 f4             	mov    -0xc(%ebp),%eax
 1003550:	0f b6 00             	movzbl (%eax),%eax
 1003553:	8b 55 ec             	mov    -0x14(%ebp),%edx
 1003556:	83 e2 07             	and    $0x7,%edx
 1003559:	bb 01 00 00 00       	mov    $0x1,%ebx
 100355e:	89 d1                	mov    %edx,%ecx
 1003560:	d3 e3                	shl    %cl,%ebx
 1003562:	89 da                	mov    %ebx,%edx
 1003564:	01 c2                	add    %eax,%edx
 1003566:	8b 45 f4             	mov    -0xc(%ebp),%eax
 1003569:	88 10                	mov    %dl,(%eax)
 100356b:	83 45 ec 01          	addl   $0x1,-0x14(%ebp)
 100356f:	8b 45 ec             	mov    -0x14(%ebp),%eax
 1003572:	83 e0 07             	and    $0x7,%eax
 1003575:	85 c0                	test   %eax,%eax
 1003577:	75 04                	jne    100357d <set_memory_map+0xbe>
 1003579:	83 45 f4 01          	addl   $0x1,-0xc(%ebp)
 100357d:	81 7d ec 00 04 00 00 	cmpl   $0x400,-0x14(%ebp)
 1003584:	75 af                	jne    1003535 <set_memory_map+0x76>
 1003586:	eb 04                	jmp    100358c <set_memory_map+0xcd>
 1003588:	83 6d f4 80          	subl   $0xffffff80,-0xc(%ebp)
 100358c:	83 45 f0 04          	addl   $0x4,-0x10(%ebp)
 1003590:	83 45 e8 01          	addl   $0x1,-0x18(%ebp)
 1003594:	81 7d e8 ff 03 00 00 	cmpl   $0x3ff,-0x18(%ebp)
 100359b:	0f 86 72 ff ff ff    	jbe    1003513 <set_memory_map+0x54>
 10035a1:	8b 5d fc             	mov    -0x4(%ebp),%ebx
 10035a4:	c9                   	leave  
 10035a5:	c3                   	ret    

010035a6 <HardFrameFrTo>:
 10035a6:	55                   	push   %ebp
 10035a7:	89 e5                	mov    %esp,%ebp
 10035a9:	83 ec 28             	sub    $0x28,%esp
 10035ac:	8b 45 0c             	mov    0xc(%ebp),%eax
 10035af:	c1 e8 16             	shr    $0x16,%eax
 10035b2:	05 00 00 0c 00       	add    $0xc0000,%eax
 10035b7:	c1 e0 02             	shl    $0x2,%eax
 10035ba:	89 45 f4             	mov    %eax,-0xc(%ebp)
 10035bd:	8b 45 0c             	mov    0xc(%ebp),%eax
 10035c0:	c1 e8 16             	shr    $0x16,%eax
 10035c3:	05 01 03 00 00       	add    $0x301,%eax
 10035c8:	c1 e0 0c             	shl    $0xc,%eax
 10035cb:	89 45 f0             	mov    %eax,-0x10(%ebp)
 10035ce:	8b 45 f0             	mov    -0x10(%ebp),%eax
 10035d1:	89 45 ec             	mov    %eax,-0x14(%ebp)
 10035d4:	8b 45 08             	mov    0x8(%ebp),%eax
 10035d7:	89 45 e8             	mov    %eax,-0x18(%ebp)
 10035da:	81 65 08 00 f0 ff ff 	andl   $0xfffff000,0x8(%ebp)
 10035e1:	81 65 0c 00 f0 ff ff 	andl   $0xfffff000,0xc(%ebp)
 10035e8:	8b 45 10             	mov    0x10(%ebp),%eax
 10035eb:	25 ff 0f 00 00       	and    $0xfff,%eax
 10035f0:	85 c0                	test   %eax,%eax
 10035f2:	74 0e                	je     1003602 <HardFrameFrTo+0x5c>
 10035f4:	81 65 10 00 f0 ff ff 	andl   $0xfffff000,0x10(%ebp)
 10035fb:	81 45 10 00 10 00 00 	addl   $0x1000,0x10(%ebp)
 1003602:	c7 45 e4 00 00 00 00 	movl   $0x0,-0x1c(%ebp)
 1003609:	eb 73                	jmp    100367e <HardFrameFrTo+0xd8>
 100360b:	ff 75 f0             	pushl  -0x10(%ebp)
 100360e:	6a 00                	push   $0x0
 1003610:	6a 01                	push   $0x1
 1003612:	6a 01                	push   $0x1
 1003614:	ff 75 f4             	pushl  -0xc(%ebp)
 1003617:	e8 17 fc ff ff       	call   1003233 <MemSet_PDE>
 100361c:	83 c4 14             	add    $0x14,%esp
 100361f:	eb 3e                	jmp    100365f <HardFrameFrTo+0xb9>
 1003621:	ff 75 e8             	pushl  -0x18(%ebp)
 1003624:	6a 00                	push   $0x0
 1003626:	6a 01                	push   $0x1
 1003628:	6a 01                	push   $0x1
 100362a:	ff 75 ec             	pushl  -0x14(%ebp)
 100362d:	e8 b7 fb ff ff       	call   10031e9 <MemSet_Frame>
 1003632:	83 c4 14             	add    $0x14,%esp
 1003635:	8b 45 f0             	mov    -0x10(%ebp),%eax
 1003638:	05 00 10 00 00       	add    $0x1000,%eax
 100363d:	3b 45 ec             	cmp    -0x14(%ebp),%eax
 1003640:	73 12                	jae    1003654 <HardFrameFrTo+0xae>
 1003642:	83 ec 0c             	sub    $0xc,%esp
 1003645:	68 92 66 00 01       	push   $0x1006692
 100364a:	e8 50 cc ff ff       	call   100029f <printf>
 100364f:	83 c4 10             	add    $0x10,%esp
 1003652:	eb fe                	jmp    1003652 <HardFrameFrTo+0xac>
 1003654:	81 45 e8 00 10 00 00 	addl   $0x1000,-0x18(%ebp)
 100365b:	83 45 ec 04          	addl   $0x4,-0x14(%ebp)
 100365f:	8b 45 f0             	mov    -0x10(%ebp),%eax
 1003662:	05 00 10 00 00       	add    $0x1000,%eax
 1003667:	3b 45 ec             	cmp    -0x14(%ebp),%eax
 100366a:	75 b5                	jne    1003621 <HardFrameFrTo+0x7b>
 100366c:	81 45 e4 00 10 00 00 	addl   $0x1000,-0x1c(%ebp)
 1003673:	83 45 f4 04          	addl   $0x4,-0xc(%ebp)
 1003677:	81 45 f0 00 10 00 00 	addl   $0x1000,-0x10(%ebp)
 100367e:	8b 45 e4             	mov    -0x1c(%ebp),%eax
 1003681:	3b 45 10             	cmp    0x10(%ebp),%eax
 1003684:	75 85                	jne    100360b <HardFrameFrTo+0x65>
 1003686:	c9                   	leave  
 1003687:	c3                   	ret    

01003688 <malloc>:
 1003688:	55                   	push   %ebp
 1003689:	89 e5                	mov    %esp,%ebp
 100368b:	57                   	push   %edi
 100368c:	56                   	push   %esi
 100368d:	53                   	push   %ebx
 100368e:	83 ec 4c             	sub    $0x4c,%esp
 1003691:	8b 45 10             	mov    0x10(%ebp),%eax
 1003694:	8b 55 08             	mov    0x8(%ebp),%edx
 1003697:	89 55 b0             	mov    %edx,-0x50(%ebp)
 100369a:	8b 55 0c             	mov    0xc(%ebp),%edx
 100369d:	89 55 b4             	mov    %edx,-0x4c(%ebp)
 10036a0:	88 45 ac             	mov    %al,-0x54(%ebp)
 10036a3:	8b 45 b0             	mov    -0x50(%ebp),%eax
 10036a6:	8b 55 b4             	mov    -0x4c(%ebp),%edx
 10036a9:	89 45 e0             	mov    %eax,-0x20(%ebp)
 10036ac:	89 55 e4             	mov    %edx,-0x1c(%ebp)
 10036af:	c7 45 d8 00 00 00 00 	movl   $0x0,-0x28(%ebp)
 10036b6:	c7 45 dc 00 00 00 00 	movl   $0x0,-0x24(%ebp)
 10036bd:	c7 45 d4 00 00 00 00 	movl   $0x0,-0x2c(%ebp)
 10036c4:	c6 45 d3 00          	movb   $0x0,-0x2d(%ebp)
 10036c8:	c7 45 bc 00 00 10 00 	movl   $0x100000,-0x44(%ebp)
 10036cf:	c7 45 b8 00 00 00 00 	movl   $0x0,-0x48(%ebp)
 10036d6:	c7 45 cc 00 00 30 00 	movl   $0x300000,-0x34(%ebp)
 10036dd:	c7 45 c8 00 00 00 00 	movl   $0x0,-0x38(%ebp)
 10036e4:	c7 45 c4 00 02 00 00 	movl   $0x200,-0x3c(%ebp)
 10036eb:	c7 45 c0 00 00 00 00 	movl   $0x0,-0x40(%ebp)
 10036f2:	80 7d ac 00          	cmpb   $0x0,-0x54(%ebp)
 10036f6:	74 25                	je     100371d <malloc+0x95>
 10036f8:	8b 45 b0             	mov    -0x50(%ebp),%eax
 10036fb:	8b 55 b4             	mov    -0x4c(%ebp),%edx
 10036fe:	0f ac d0 0c          	shrd   $0xc,%edx,%eax
 1003702:	c1 ea 0c             	shr    $0xc,%edx
 1003705:	89 45 e0             	mov    %eax,-0x20(%ebp)
 1003708:	89 55 e4             	mov    %edx,-0x1c(%ebp)
 100370b:	8b 45 b4             	mov    -0x4c(%ebp),%eax
 100370e:	0b 45 b0             	or     -0x50(%ebp),%eax
 1003711:	85 c0                	test   %eax,%eax
 1003713:	74 08                	je     100371d <malloc+0x95>
 1003715:	83 45 e0 01          	addl   $0x1,-0x20(%ebp)
 1003719:	83 55 e4 00          	adcl   $0x0,-0x1c(%ebp)
 100371d:	a1 08 80 00 01       	mov    0x1008008,%eax
 1003722:	85 c0                	test   %eax,%eax
 1003724:	75 1d                	jne    1003743 <malloc+0xbb>
 1003726:	eb 04                	jmp    100372c <malloc+0xa4>
 1003728:	83 45 c4 01          	addl   $0x1,-0x3c(%ebp)
 100372c:	8b 55 bc             	mov    -0x44(%ebp),%edx
 100372f:	8b 45 c4             	mov    -0x3c(%ebp),%eax
 1003732:	01 d0                	add    %edx,%eax
 1003734:	0f b6 00             	movzbl (%eax),%eax
 1003737:	3c ff                	cmp    $0xff,%al
 1003739:	74 ed                	je     1003728 <malloc+0xa0>
 100373b:	8b 45 c4             	mov    -0x3c(%ebp),%eax
 100373e:	a3 08 80 00 01       	mov    %eax,0x1008008
 1003743:	a1 08 80 00 01       	mov    0x1008008,%eax
 1003748:	89 45 c4             	mov    %eax,-0x3c(%ebp)
 100374b:	e9 9e 00 00 00       	jmp    10037ee <malloc+0x166>
 1003750:	83 7d c0 08          	cmpl   $0x8,-0x40(%ebp)
 1003754:	75 0b                	jne    1003761 <malloc+0xd9>
 1003756:	c7 45 c0 00 00 00 00 	movl   $0x0,-0x40(%ebp)
 100375d:	83 45 c4 01          	addl   $0x1,-0x3c(%ebp)
 1003761:	8b 4d c4             	mov    -0x3c(%ebp),%ecx
 1003764:	bb 00 00 00 00       	mov    $0x0,%ebx
 1003769:	a1 c8 a7 00 01       	mov    0x100a7c8,%eax
 100376e:	8b 15 cc a7 00 01    	mov    0x100a7cc,%edx
 1003774:	39 d3                	cmp    %edx,%ebx
 1003776:	72 26                	jb     100379e <malloc+0x116>
 1003778:	39 d3                	cmp    %edx,%ebx
 100377a:	77 04                	ja     1003780 <malloc+0xf8>
 100377c:	39 c1                	cmp    %eax,%ecx
 100377e:	72 1e                	jb     100379e <malloc+0x116>
 1003780:	6a 03                	push   $0x3
 1003782:	e8 3d cd ff ff       	call   10004c4 <setcolor>
 1003787:	83 c4 04             	add    $0x4,%esp
 100378a:	83 ec 0c             	sub    $0xc,%esp
 100378d:	68 a8 66 00 01       	push   $0x10066a8
 1003792:	e8 08 cb ff ff       	call   100029f <printf>
 1003797:	83 c4 10             	add    $0x10,%esp
 100379a:	fa                   	cli    
 100379b:	f4                   	hlt    
 100379c:	eb fe                	jmp    100379c <malloc+0x114>
 100379e:	8b 55 bc             	mov    -0x44(%ebp),%edx
 10037a1:	8b 45 c4             	mov    -0x3c(%ebp),%eax
 10037a4:	01 d0                	add    %edx,%eax
 10037a6:	0f b6 00             	movzbl (%eax),%eax
 10037a9:	0f b6 d0             	movzbl %al,%edx
 10037ac:	8b 45 c0             	mov    -0x40(%ebp),%eax
 10037af:	89 c1                	mov    %eax,%ecx
 10037b1:	d3 fa                	sar    %cl,%edx
 10037b3:	89 d0                	mov    %edx,%eax
 10037b5:	83 e0 01             	and    $0x1,%eax
 10037b8:	85 c0                	test   %eax,%eax
 10037ba:	75 20                	jne    10037dc <malloc+0x154>
 10037bc:	8b 45 dc             	mov    -0x24(%ebp),%eax
 10037bf:	0b 45 d8             	or     -0x28(%ebp),%eax
 10037c2:	85 c0                	test   %eax,%eax
 10037c4:	75 0c                	jne    10037d2 <malloc+0x14a>
 10037c6:	8b 45 c4             	mov    -0x3c(%ebp),%eax
 10037c9:	89 45 d4             	mov    %eax,-0x2c(%ebp)
 10037cc:	8b 45 c0             	mov    -0x40(%ebp),%eax
 10037cf:	88 45 d3             	mov    %al,-0x2d(%ebp)
 10037d2:	83 45 d8 01          	addl   $0x1,-0x28(%ebp)
 10037d6:	83 55 dc 00          	adcl   $0x0,-0x24(%ebp)
 10037da:	eb 0e                	jmp    10037ea <malloc+0x162>
 10037dc:	c7 45 d8 00 00 00 00 	movl   $0x0,-0x28(%ebp)
 10037e3:	c7 45 dc 00 00 00 00 	movl   $0x0,-0x24(%ebp)
 10037ea:	83 45 c0 01          	addl   $0x1,-0x40(%ebp)
 10037ee:	8b 45 e0             	mov    -0x20(%ebp),%eax
 10037f1:	8b 55 e4             	mov    -0x1c(%ebp),%edx
 10037f4:	89 d1                	mov    %edx,%ecx
 10037f6:	33 4d dc             	xor    -0x24(%ebp),%ecx
 10037f9:	33 45 d8             	xor    -0x28(%ebp),%eax
 10037fc:	09 c8                	or     %ecx,%eax
 10037fe:	85 c0                	test   %eax,%eax
 1003800:	0f 85 4a ff ff ff    	jne    1003750 <malloc+0xc8>
 1003806:	c7 45 d8 00 00 00 00 	movl   $0x0,-0x28(%ebp)
 100380d:	c7 45 dc 00 00 00 00 	movl   $0x0,-0x24(%ebp)
 1003814:	8b 45 d4             	mov    -0x2c(%ebp),%eax
 1003817:	89 45 c4             	mov    %eax,-0x3c(%ebp)
 100381a:	0f b6 45 d3          	movzbl -0x2d(%ebp),%eax
 100381e:	89 45 c0             	mov    %eax,-0x40(%ebp)
 1003821:	e9 b7 01 00 00       	jmp    10039dd <malloc+0x355>
 1003826:	8b 4d cc             	mov    -0x34(%ebp),%ecx
 1003829:	bb 00 00 00 00       	mov    $0x0,%ebx
 100382e:	8b 45 d4             	mov    -0x2c(%ebp),%eax
 1003831:	c1 e0 03             	shl    $0x3,%eax
 1003834:	89 c6                	mov    %eax,%esi
 1003836:	bf 00 00 00 00       	mov    $0x0,%edi
 100383b:	8b 45 d8             	mov    -0x28(%ebp),%eax
 100383e:	8b 55 dc             	mov    -0x24(%ebp),%edx
 1003841:	01 c6                	add    %eax,%esi
 1003843:	11 d7                	adc    %edx,%edi
 1003845:	0f b6 45 d3          	movzbl -0x2d(%ebp),%eax
 1003849:	ba 00 00 00 00       	mov    $0x0,%edx
 100384e:	01 f0                	add    %esi,%eax
 1003850:	11 fa                	adc    %edi,%edx
 1003852:	0f a4 c2 0c          	shld   $0xc,%eax,%edx
 1003856:	c1 e0 0c             	shl    $0xc,%eax
 1003859:	0f ac d0 16          	shrd   $0x16,%edx,%eax
 100385d:	c1 ea 16             	shr    $0x16,%edx
 1003860:	05 00 00 0c 00       	add    $0xc0000,%eax
 1003865:	83 d2 00             	adc    $0x0,%edx
 1003868:	0f a4 c2 02          	shld   $0x2,%eax,%edx
 100386c:	c1 e0 02             	shl    $0x2,%eax
 100386f:	89 de                	mov    %ebx,%esi
 1003871:	31 d6                	xor    %edx,%esi
 1003873:	31 c8                	xor    %ecx,%eax
 1003875:	09 f0                	or     %esi,%eax
 1003877:	85 c0                	test   %eax,%eax
 1003879:	0f 84 dc 00 00 00    	je     100395b <malloc+0x2d3>
 100387f:	8b 45 d4             	mov    -0x2c(%ebp),%eax
 1003882:	c1 e0 03             	shl    $0x3,%eax
 1003885:	89 c1                	mov    %eax,%ecx
 1003887:	bb 00 00 00 00       	mov    $0x0,%ebx
 100388c:	8b 45 d8             	mov    -0x28(%ebp),%eax
 100388f:	8b 55 dc             	mov    -0x24(%ebp),%edx
 1003892:	01 c1                	add    %eax,%ecx
 1003894:	11 d3                	adc    %edx,%ebx
 1003896:	0f b6 45 d3          	movzbl -0x2d(%ebp),%eax
 100389a:	ba 00 00 00 00       	mov    $0x0,%edx
 100389f:	01 c8                	add    %ecx,%eax
 10038a1:	11 da                	adc    %ebx,%edx
 10038a3:	0f a4 c2 0c          	shld   $0xc,%eax,%edx
 10038a7:	c1 e0 0c             	shl    $0xc,%eax
 10038aa:	0f ac d0 16          	shrd   $0x16,%edx,%eax
 10038ae:	c1 ea 16             	shr    $0x16,%edx
 10038b1:	05 00 00 0c 00       	add    $0xc0000,%eax
 10038b6:	83 d2 00             	adc    $0x0,%edx
 10038b9:	c1 e0 02             	shl    $0x2,%eax
 10038bc:	89 45 cc             	mov    %eax,-0x34(%ebp)
 10038bf:	8b 45 d4             	mov    -0x2c(%ebp),%eax
 10038c2:	c1 e0 03             	shl    $0x3,%eax
 10038c5:	89 c1                	mov    %eax,%ecx
 10038c7:	bb 00 00 00 00       	mov    $0x0,%ebx
 10038cc:	8b 45 d8             	mov    -0x28(%ebp),%eax
 10038cf:	8b 55 dc             	mov    -0x24(%ebp),%edx
 10038d2:	01 c1                	add    %eax,%ecx
 10038d4:	11 d3                	adc    %edx,%ebx
 10038d6:	0f b6 45 d3          	movzbl -0x2d(%ebp),%eax
 10038da:	ba 00 00 00 00       	mov    $0x0,%edx
 10038df:	01 c8                	add    %ecx,%eax
 10038e1:	11 da                	adc    %ebx,%edx
 10038e3:	0f a4 c2 0c          	shld   $0xc,%eax,%edx
 10038e7:	c1 e0 0c             	shl    $0xc,%eax
 10038ea:	0f ac d0 16          	shrd   $0x16,%edx,%eax
 10038ee:	c1 ea 16             	shr    $0x16,%edx
 10038f1:	05 01 03 00 00       	add    $0x301,%eax
 10038f6:	83 d2 00             	adc    $0x0,%edx
 10038f9:	c1 e0 0c             	shl    $0xc,%eax
 10038fc:	89 45 c8             	mov    %eax,-0x38(%ebp)
 10038ff:	8b 45 cc             	mov    -0x34(%ebp),%eax
 1003902:	89 45 b8             	mov    %eax,-0x48(%ebp)
 1003905:	8b 45 b8             	mov    -0x48(%ebp),%eax
 1003908:	8b 00                	mov    (%eax),%eax
 100390a:	83 e0 01             	and    $0x1,%eax
 100390d:	85 c0                	test   %eax,%eax
 100390f:	75 17                	jne    1003928 <malloc+0x2a0>
 1003911:	83 ec 0c             	sub    $0xc,%esp
 1003914:	ff 75 c8             	pushl  -0x38(%ebp)
 1003917:	6a 00                	push   $0x0
 1003919:	6a 01                	push   $0x1
 100391b:	6a 01                	push   $0x1
 100391d:	ff 75 cc             	pushl  -0x34(%ebp)
 1003920:	e8 0e f9 ff ff       	call   1003233 <MemSet_PDE>
 1003925:	83 c4 20             	add    $0x20,%esp
 1003928:	8b 45 dc             	mov    -0x24(%ebp),%eax
 100392b:	0b 45 d8             	or     -0x28(%ebp),%eax
 100392e:	85 c0                	test   %eax,%eax
 1003930:	0f 85 a7 00 00 00    	jne    10039dd <malloc+0x355>
 1003936:	8b 45 d4             	mov    -0x2c(%ebp),%eax
 1003939:	8d 14 c5 00 00 00 00 	lea    0x0(,%eax,8),%edx
 1003940:	0f b6 45 d3          	movzbl -0x2d(%ebp),%eax
 1003944:	01 d0                	add    %edx,%eax
 1003946:	c1 e0 0c             	shl    $0xc,%eax
 1003949:	c1 e8 0b             	shr    $0xb,%eax
 100394c:	25 ff 03 00 00       	and    $0x3ff,%eax
 1003951:	01 c0                	add    %eax,%eax
 1003953:	01 45 c8             	add    %eax,-0x38(%ebp)
 1003956:	e9 82 00 00 00       	jmp    10039dd <malloc+0x355>
 100395b:	83 7d c0 08          	cmpl   $0x8,-0x40(%ebp)
 100395f:	75 0b                	jne    100396c <malloc+0x2e4>
 1003961:	83 45 c4 01          	addl   $0x1,-0x3c(%ebp)
 1003965:	c7 45 c0 00 00 00 00 	movl   $0x0,-0x40(%ebp)
 100396c:	8b 55 bc             	mov    -0x44(%ebp),%edx
 100396f:	8b 45 c4             	mov    -0x3c(%ebp),%eax
 1003972:	01 c2                	add    %eax,%edx
 1003974:	8b 4d bc             	mov    -0x44(%ebp),%ecx
 1003977:	8b 45 c4             	mov    -0x3c(%ebp),%eax
 100397a:	01 c8                	add    %ecx,%eax
 100397c:	0f b6 18             	movzbl (%eax),%ebx
 100397f:	8b 45 c0             	mov    -0x40(%ebp),%eax
 1003982:	be 01 00 00 00       	mov    $0x1,%esi
 1003987:	89 c1                	mov    %eax,%ecx
 1003989:	d3 e6                	shl    %cl,%esi
 100398b:	89 f0                	mov    %esi,%eax
 100398d:	01 d8                	add    %ebx,%eax
 100398f:	88 02                	mov    %al,(%edx)
 1003991:	8b 45 d4             	mov    -0x2c(%ebp),%eax
 1003994:	c1 e0 03             	shl    $0x3,%eax
 1003997:	89 c1                	mov    %eax,%ecx
 1003999:	bb 00 00 00 00       	mov    $0x0,%ebx
 100399e:	8b 45 d8             	mov    -0x28(%ebp),%eax
 10039a1:	8b 55 dc             	mov    -0x24(%ebp),%edx
 10039a4:	01 c1                	add    %eax,%ecx
 10039a6:	11 d3                	adc    %edx,%ebx
 10039a8:	0f b6 45 d3          	movzbl -0x2d(%ebp),%eax
 10039ac:	ba 00 00 00 00       	mov    $0x0,%edx
 10039b1:	01 c8                	add    %ecx,%eax
 10039b3:	11 da                	adc    %ebx,%edx
 10039b5:	c1 e0 0c             	shl    $0xc,%eax
 10039b8:	83 ec 0c             	sub    $0xc,%esp
 10039bb:	50                   	push   %eax
 10039bc:	6a 00                	push   $0x0
 10039be:	6a 01                	push   $0x1
 10039c0:	6a 01                	push   $0x1
 10039c2:	ff 75 c8             	pushl  -0x38(%ebp)
 10039c5:	e8 1f f8 ff ff       	call   10031e9 <MemSet_Frame>
 10039ca:	83 c4 20             	add    $0x20,%esp
 10039cd:	83 45 c8 04          	addl   $0x4,-0x38(%ebp)
 10039d1:	83 45 d8 01          	addl   $0x1,-0x28(%ebp)
 10039d5:	83 55 dc 00          	adcl   $0x0,-0x24(%ebp)
 10039d9:	83 45 c0 01          	addl   $0x1,-0x40(%ebp)
 10039dd:	8b 45 d8             	mov    -0x28(%ebp),%eax
 10039e0:	8b 55 dc             	mov    -0x24(%ebp),%edx
 10039e3:	89 d1                	mov    %edx,%ecx
 10039e5:	33 4d e4             	xor    -0x1c(%ebp),%ecx
 10039e8:	33 45 e0             	xor    -0x20(%ebp),%eax
 10039eb:	09 c8                	or     %ecx,%eax
 10039ed:	85 c0                	test   %eax,%eax
 10039ef:	0f 85 31 fe ff ff    	jne    1003826 <malloc+0x19e>
 10039f5:	8b 45 d4             	mov    -0x2c(%ebp),%eax
 10039f8:	8d 14 c5 00 00 00 00 	lea    0x0(,%eax,8),%edx
 10039ff:	0f b6 45 d3          	movzbl -0x2d(%ebp),%eax
 1003a03:	01 d0                	add    %edx,%eax
 1003a05:	c1 e0 0c             	shl    $0xc,%eax
 1003a08:	8d 65 f4             	lea    -0xc(%ebp),%esp
 1003a0b:	5b                   	pop    %ebx
 1003a0c:	5e                   	pop    %esi
 1003a0d:	5f                   	pop    %edi
 1003a0e:	5d                   	pop    %ebp
 1003a0f:	c3                   	ret    

01003a10 <free>:
 1003a10:	55                   	push   %ebp
 1003a11:	89 e5                	mov    %esp,%ebp
 1003a13:	83 ec 04             	sub    $0x4,%esp
 1003a16:	8b 45 10             	mov    0x10(%ebp),%eax
 1003a19:	88 45 fc             	mov    %al,-0x4(%ebp)
 1003a1c:	c9                   	leave  
 1003a1d:	c3                   	ret    

01003a1e <init_memory>:
 1003a1e:	55                   	push   %ebp
 1003a1f:	89 e5                	mov    %esp,%ebp
 1003a21:	83 ec 08             	sub    $0x8,%esp
 1003a24:	e8 f7 c5 ff ff       	call   1000020 <idt_closed>
 1003a29:	e8 d2 f8 ff ff       	call   1003300 <get_memory_size>
 1003a2e:	ba 00 00 00 00       	mov    $0x0,%edx
 1003a33:	a3 c8 a7 00 01       	mov    %eax,0x100a7c8
 1003a38:	89 15 cc a7 00 01    	mov    %edx,0x100a7cc
 1003a3e:	83 ec 04             	sub    $0x4,%esp
 1003a41:	6a 00                	push   $0x0
 1003a43:	6a 00                	push   $0x0
 1003a45:	68 00 00 30 00       	push   $0x300000
 1003a4a:	e8 63 f8 ff ff       	call   10032b2 <MemSet_CR3>
 1003a4f:	83 c4 10             	add    $0x10,%esp
 1003a52:	83 ec 04             	sub    $0x4,%esp
 1003a55:	68 00 10 00 00       	push   $0x1000
 1003a5a:	6a 00                	push   $0x0
 1003a5c:	6a 00                	push   $0x0
 1003a5e:	e8 43 fb ff ff       	call   10035a6 <HardFrameFrTo>
 1003a63:	83 c4 10             	add    $0x10,%esp
 1003a66:	83 ec 04             	sub    $0x4,%esp
 1003a69:	ff 75 08             	pushl  0x8(%ebp)
 1003a6c:	68 00 00 00 01       	push   $0x1000000
 1003a71:	68 00 00 00 01       	push   $0x1000000
 1003a76:	e8 2b fb ff ff       	call   10035a6 <HardFrameFrTo>
 1003a7b:	83 c4 10             	add    $0x10,%esp
 1003a7e:	e8 3c fa ff ff       	call   10034bf <set_memory_map>
 1003a83:	e8 62 f8 ff ff       	call   10032ea <MemSet_PageTrONOFF>
 1003a88:	83 ec 0c             	sub    $0xc,%esp
 1003a8b:	6a 50                	push   $0x50
 1003a8d:	e8 c4 f8 ff ff       	call   1003356 <SMM>
 1003a92:	83 c4 10             	add    $0x10,%esp
 1003a95:	e8 8c c5 ff ff       	call   1000026 <idt_open>
 1003a9a:	c9                   	leave  
 1003a9b:	c3                   	ret    

01003a9c <ltr>:
 1003a9c:	55                   	push   %ebp
 1003a9d:	89 e5                	mov    %esp,%ebp
 1003a9f:	83 ec 04             	sub    $0x4,%esp
 1003aa2:	8b 45 08             	mov    0x8(%ebp),%eax
 1003aa5:	66 89 45 fc          	mov    %ax,-0x4(%ebp)
 1003aa9:	0f b7 45 fc          	movzwl -0x4(%ebp),%eax
 1003aad:	0f 00 d8             	ltr    %ax
 1003ab0:	c9                   	leave  
 1003ab1:	c3                   	ret    

01003ab2 <tss_access>:
 1003ab2:	55                   	push   %ebp
 1003ab3:	89 e5                	mov    %esp,%ebp
 1003ab5:	83 ec 04             	sub    $0x4,%esp
 1003ab8:	8b 45 0c             	mov    0xc(%ebp),%eax
 1003abb:	88 45 fc             	mov    %al,-0x4(%ebp)
 1003abe:	80 7d fc 00          	cmpb   $0x0,-0x4(%ebp)
 1003ac2:	74 0e                	je     1003ad2 <tss_access+0x20>
 1003ac4:	8b 45 08             	mov    0x8(%ebp),%eax
 1003ac7:	0f b6 55 fc          	movzbl -0x4(%ebp),%edx
 1003acb:	88 14 c5 45 a2 00 01 	mov    %dl,0x100a245(,%eax,8)
 1003ad2:	c9                   	leave  
 1003ad3:	c3                   	ret    

01003ad4 <LoadProccess>:
 1003ad4:	55                   	push   %ebp
 1003ad5:	89 e5                	mov    %esp,%ebp
 1003ad7:	83 ec 18             	sub    $0x18,%esp
 1003ada:	c7 45 f4 00 00 00 00 	movl   $0x0,-0xc(%ebp)
 1003ae1:	66 c7 45 f2 00 00    	movw   $0x0,-0xe(%ebp)
 1003ae7:	83 ec 08             	sub    $0x8,%esp
 1003aea:	6a 00                	push   $0x0
 1003aec:	ff 75 08             	pushl  0x8(%ebp)
 1003aef:	e8 7c f1 ff ff       	call   1002c70 <fopen>
 1003af4:	83 c4 10             	add    $0x10,%esp
 1003af7:	84 c0                	test   %al,%al
 1003af9:	74 1a                	je     1003b15 <LoadProccess+0x41>
 1003afb:	83 ec 0c             	sub    $0xc,%esp
 1003afe:	68 dc 66 00 01       	push   $0x10066dc
 1003b03:	e8 97 c7 ff ff       	call   100029f <printf>
 1003b08:	83 c4 10             	add    $0x10,%esp
 1003b0b:	b8 01 00 00 00       	mov    $0x1,%eax
 1003b10:	e9 22 01 00 00       	jmp    1003c37 <LoadProccess+0x163>
 1003b15:	a1 84 a7 00 01       	mov    0x100a784,%eax
 1003b1a:	83 ec 0c             	sub    $0xc,%esp
 1003b1d:	50                   	push   %eax
 1003b1e:	e8 16 01 00 00       	call   1003c39 <NewProccess>
 1003b23:	83 c4 10             	add    $0x10,%esp
 1003b26:	66 89 45 f2          	mov    %ax,-0xe(%ebp)
 1003b2a:	0f b7 45 f2          	movzwl -0xe(%ebp),%eax
 1003b2e:	83 ec 0c             	sub    $0xc,%esp
 1003b31:	6a 00                	push   $0x0
 1003b33:	6a 00                	push   $0x0
 1003b35:	6a 00                	push   $0x0
 1003b37:	6a 00                	push   $0x0
 1003b39:	50                   	push   %eax
 1003b3a:	e8 7e 05 00 00       	call   10040bd <ldt_set_gate>
 1003b3f:	83 c4 20             	add    $0x20,%esp
 1003b42:	8b 15 8c a7 00 01    	mov    0x100a78c,%edx
 1003b48:	a1 88 a7 00 01       	mov    0x100a788,%eax
 1003b4d:	0f b7 4d f2          	movzwl -0xe(%ebp),%ecx
 1003b51:	83 c1 01             	add    $0x1,%ecx
 1003b54:	83 ec 0c             	sub    $0xc,%esp
 1003b57:	68 cf 00 00 00       	push   $0xcf
 1003b5c:	68 9a 00 00 00       	push   $0x9a
 1003b61:	52                   	push   %edx
 1003b62:	50                   	push   %eax
 1003b63:	51                   	push   %ecx
 1003b64:	e8 54 05 00 00       	call   10040bd <ldt_set_gate>
 1003b69:	83 c4 20             	add    $0x20,%esp
 1003b6c:	8b 15 94 a7 00 01    	mov    0x100a794,%edx
 1003b72:	a1 90 a7 00 01       	mov    0x100a790,%eax
 1003b77:	0f b7 4d f2          	movzwl -0xe(%ebp),%ecx
 1003b7b:	83 c1 02             	add    $0x2,%ecx
 1003b7e:	83 ec 0c             	sub    $0xc,%esp
 1003b81:	68 cf 00 00 00       	push   $0xcf
 1003b86:	68 92 00 00 00       	push   $0x92
 1003b8b:	52                   	push   %edx
 1003b8c:	50                   	push   %eax
 1003b8d:	51                   	push   %ecx
 1003b8e:	e8 2a 05 00 00       	call   10040bd <ldt_set_gate>
 1003b93:	83 c4 20             	add    $0x20,%esp
 1003b96:	a1 0c 80 00 01       	mov    0x100800c,%eax
 1003b9b:	69 c0 28 04 00 00    	imul   $0x428,%eax,%eax
 1003ba1:	83 c0 20             	add    $0x20,%eax
 1003ba4:	05 40 b4 00 01       	add    $0x100b440,%eax
 1003ba9:	83 c0 08             	add    $0x8,%eax
 1003bac:	89 c2                	mov    %eax,%edx
 1003bae:	0f b7 45 f2          	movzwl -0xe(%ebp),%eax
 1003bb2:	83 c0 03             	add    $0x3,%eax
 1003bb5:	83 ec 0c             	sub    $0xc,%esp
 1003bb8:	6a 4f                	push   $0x4f
 1003bba:	68 92 00 00 00       	push   $0x92
 1003bbf:	68 00 02 00 00       	push   $0x200
 1003bc4:	52                   	push   %edx
 1003bc5:	50                   	push   %eax
 1003bc6:	e8 f2 04 00 00       	call   10040bd <ldt_set_gate>
 1003bcb:	83 c4 20             	add    $0x20,%esp
 1003bce:	a1 0c 80 00 01       	mov    0x100800c,%eax
 1003bd3:	69 c0 28 04 00 00    	imul   $0x428,%eax,%eax
 1003bd9:	05 20 02 00 00       	add    $0x220,%eax
 1003bde:	05 40 b4 00 01       	add    $0x100b440,%eax
 1003be3:	83 c0 08             	add    $0x8,%eax
 1003be6:	89 c2                	mov    %eax,%edx
 1003be8:	0f b7 45 f2          	movzwl -0xe(%ebp),%eax
 1003bec:	83 c0 04             	add    $0x4,%eax
 1003bef:	83 ec 0c             	sub    $0xc,%esp
 1003bf2:	6a 4f                	push   $0x4f
 1003bf4:	68 92 00 00 00       	push   $0x92
 1003bf9:	68 00 02 00 00       	push   $0x200
 1003bfe:	52                   	push   %edx
 1003bff:	50                   	push   %eax
 1003c00:	e8 b8 04 00 00       	call   10040bd <ldt_set_gate>
 1003c05:	83 c4 20             	add    $0x20,%esp
 1003c08:	8b 15 9c a7 00 01    	mov    0x100a79c,%edx
 1003c0e:	a1 98 a7 00 01       	mov    0x100a798,%eax
 1003c13:	0f b7 4d f2          	movzwl -0xe(%ebp),%ecx
 1003c17:	83 c1 05             	add    $0x5,%ecx
 1003c1a:	83 ec 0c             	sub    $0xc,%esp
 1003c1d:	68 cf 00 00 00       	push   $0xcf
 1003c22:	68 92 00 00 00       	push   $0x92
 1003c27:	52                   	push   %edx
 1003c28:	50                   	push   %eax
 1003c29:	51                   	push   %ecx
 1003c2a:	e8 8e 04 00 00       	call   10040bd <ldt_set_gate>
 1003c2f:	83 c4 20             	add    $0x20,%esp
 1003c32:	b8 00 00 00 00       	mov    $0x0,%eax
 1003c37:	c9                   	leave  
 1003c38:	c3                   	ret    

01003c39 <NewProccess>:
 1003c39:	55                   	push   %ebp
 1003c3a:	89 e5                	mov    %esp,%ebp
 1003c3c:	83 ec 18             	sub    $0x18,%esp
 1003c3f:	a1 0c 80 00 01       	mov    0x100800c,%eax
 1003c44:	89 c2                	mov    %eax,%edx
 1003c46:	89 d0                	mov    %edx,%eax
 1003c48:	01 c0                	add    %eax,%eax
 1003c4a:	01 d0                	add    %edx,%eax
 1003c4c:	01 c0                	add    %eax,%eax
 1003c4e:	66 89 45 f6          	mov    %ax,-0xa(%ebp)
 1003c52:	a1 0c 80 00 01       	mov    0x100800c,%eax
 1003c57:	8b 15 10 80 00 01    	mov    0x1008010,%edx
 1003c5d:	83 c2 10             	add    $0x10,%edx
 1003c60:	c1 e2 03             	shl    $0x3,%edx
 1003c63:	89 14 85 20 80 00 01 	mov    %edx,0x1008020(,%eax,4)
 1003c6a:	8b 15 0c 80 00 01    	mov    0x100800c,%edx
 1003c70:	a1 0c 80 00 01       	mov    0x100800c,%eax
 1003c75:	69 d2 28 04 00 00    	imul   $0x428,%edx,%edx
 1003c7b:	81 c2 40 b4 00 01    	add    $0x100b440,%edx
 1003c81:	89 02                	mov    %eax,(%edx)
 1003c83:	8b 15 0c 80 00 01    	mov    0x100800c,%edx
 1003c89:	a1 0c 80 00 01       	mov    0x100800c,%eax
 1003c8e:	8b 04 85 20 80 00 01 	mov    0x1008020(,%eax,4),%eax
 1003c95:	69 d2 28 04 00 00    	imul   $0x428,%edx,%edx
 1003c9b:	83 c2 10             	add    $0x10,%edx
 1003c9e:	81 c2 40 b4 00 01    	add    $0x100b440,%edx
 1003ca4:	89 42 0d             	mov    %eax,0xd(%edx)
 1003ca7:	a1 0c 80 00 01       	mov    0x100800c,%eax
 1003cac:	69 c0 28 04 00 00    	imul   $0x428,%eax,%eax
 1003cb2:	83 c0 20             	add    $0x20,%eax
 1003cb5:	05 40 b4 00 01       	add    $0x100b440,%eax
 1003cba:	c6 40 01 02          	movb   $0x2,0x1(%eax)
 1003cbe:	a1 0c 80 00 01       	mov    0x100800c,%eax
 1003cc3:	69 c0 28 04 00 00    	imul   $0x428,%eax,%eax
 1003cc9:	83 c0 20             	add    $0x20,%eax
 1003ccc:	05 40 b4 00 01       	add    $0x100b440,%eax
 1003cd1:	c6 40 02 01          	movb   $0x1,0x2(%eax)
 1003cd5:	a1 0c 80 00 01       	mov    0x100800c,%eax
 1003cda:	69 c0 28 04 00 00    	imul   $0x428,%eax,%eax
 1003ce0:	83 c0 20             	add    $0x20,%eax
 1003ce3:	05 40 b4 00 01       	add    $0x100b440,%eax
 1003ce8:	c6 40 03 02          	movb   $0x2,0x3(%eax)
 1003cec:	a1 0c 80 00 01       	mov    0x100800c,%eax
 1003cf1:	69 c0 28 04 00 00    	imul   $0x428,%eax,%eax
 1003cf7:	83 c0 20             	add    $0x20,%eax
 1003cfa:	05 40 b4 00 01       	add    $0x100b440,%eax
 1003cff:	c7 40 04 00 00 00 00 	movl   $0x0,0x4(%eax)
 1003d06:	a1 10 80 00 01       	mov    0x1008010,%eax
 1003d0b:	6b c0 6c             	imul   $0x6c,%eax,%eax
 1003d0e:	05 00 a8 00 01       	add    $0x100a800,%eax
 1003d13:	c7 00 80 00 00 00    	movl   $0x80,(%eax)
 1003d19:	a1 10 80 00 01       	mov    0x1008010,%eax
 1003d1e:	6b c0 6c             	imul   $0x6c,%eax,%eax
 1003d21:	05 00 a8 00 01       	add    $0x100a800,%eax
 1003d26:	c7 40 08 18 00 00 00 	movl   $0x18,0x8(%eax)
 1003d2d:	a1 10 80 00 01       	mov    0x1008010,%eax
 1003d32:	6b c0 6c             	imul   $0x6c,%eax,%eax
 1003d35:	83 c0 10             	add    $0x10,%eax
 1003d38:	05 00 a8 00 01       	add    $0x100a800,%eax
 1003d3d:	c7 00 18 00 00 00    	movl   $0x18,(%eax)
 1003d43:	a1 10 80 00 01       	mov    0x1008010,%eax
 1003d48:	6b c0 6c             	imul   $0x6c,%eax,%eax
 1003d4b:	83 c0 10             	add    $0x10,%eax
 1003d4e:	05 00 a8 00 01       	add    $0x100a800,%eax
 1003d53:	c7 40 08 20 00 00 00 	movl   $0x20,0x8(%eax)
 1003d5a:	a1 10 80 00 01       	mov    0x1008010,%eax
 1003d5f:	6b c0 6c             	imul   $0x6c,%eax,%eax
 1003d62:	83 c0 10             	add    $0x10,%eax
 1003d65:	05 00 a8 00 01       	add    $0x100a800,%eax
 1003d6a:	c7 40 0c 00 00 30 00 	movl   $0x300000,0xc(%eax)
 1003d71:	a1 10 80 00 01       	mov    0x1008010,%eax
 1003d76:	6b c0 6c             	imul   $0x6c,%eax,%eax
 1003d79:	83 c0 20             	add    $0x20,%eax
 1003d7c:	8d 90 00 a8 00 01    	lea    0x100a800(%eax),%edx
 1003d82:	8b 45 08             	mov    0x8(%ebp),%eax
 1003d85:	89 02                	mov    %eax,(%edx)
 1003d87:	a1 10 80 00 01       	mov    0x1008010,%eax
 1003d8c:	6b c0 6c             	imul   $0x6c,%eax,%eax
 1003d8f:	83 c0 20             	add    $0x20,%eax
 1003d92:	05 00 a8 00 01       	add    $0x100a800,%eax
 1003d97:	c7 40 04 02 02 00 00 	movl   $0x202,0x4(%eax)
 1003d9e:	a1 10 80 00 01       	mov    0x1008010,%eax
 1003da3:	6b c0 6c             	imul   $0x6c,%eax,%eax
 1003da6:	83 c0 20             	add    $0x20,%eax
 1003da9:	05 00 a8 00 01       	add    $0x100a800,%eax
 1003dae:	c7 40 08 00 00 00 00 	movl   $0x0,0x8(%eax)
 1003db5:	a1 10 80 00 01       	mov    0x1008010,%eax
 1003dba:	6b c0 6c             	imul   $0x6c,%eax,%eax
 1003dbd:	83 c0 20             	add    $0x20,%eax
 1003dc0:	05 00 a8 00 01       	add    $0x100a800,%eax
 1003dc5:	c7 40 0c 00 00 00 00 	movl   $0x0,0xc(%eax)
 1003dcc:	a1 10 80 00 01       	mov    0x1008010,%eax
 1003dd1:	6b c0 6c             	imul   $0x6c,%eax,%eax
 1003dd4:	83 c0 30             	add    $0x30,%eax
 1003dd7:	05 00 a8 00 01       	add    $0x100a800,%eax
 1003ddc:	c7 00 00 00 00 00    	movl   $0x0,(%eax)
 1003de2:	a1 10 80 00 01       	mov    0x1008010,%eax
 1003de7:	6b c0 6c             	imul   $0x6c,%eax,%eax
 1003dea:	83 c0 30             	add    $0x30,%eax
 1003ded:	05 00 a8 00 01       	add    $0x100a800,%eax
 1003df2:	c7 40 04 00 00 00 00 	movl   $0x0,0x4(%eax)
 1003df9:	8b 15 10 80 00 01    	mov    0x1008010,%edx
 1003dff:	89 e0                	mov    %esp,%eax
 1003e01:	6b d2 6c             	imul   $0x6c,%edx,%edx
 1003e04:	83 c2 30             	add    $0x30,%edx
 1003e07:	81 c2 00 a8 00 01    	add    $0x100a800,%edx
 1003e0d:	89 42 08             	mov    %eax,0x8(%edx)
 1003e10:	a1 10 80 00 01       	mov    0x1008010,%eax
 1003e15:	6b c0 6c             	imul   $0x6c,%eax,%eax
 1003e18:	83 c0 30             	add    $0x30,%eax
 1003e1b:	05 00 a8 00 01       	add    $0x100a800,%eax
 1003e20:	c7 40 0c 00 00 00 00 	movl   $0x0,0xc(%eax)
 1003e27:	a1 10 80 00 01       	mov    0x1008010,%eax
 1003e2c:	6b c0 6c             	imul   $0x6c,%eax,%eax
 1003e2f:	83 c0 40             	add    $0x40,%eax
 1003e32:	05 00 a8 00 01       	add    $0x100a800,%eax
 1003e37:	c7 00 00 00 00 00    	movl   $0x0,(%eax)
 1003e3d:	a1 10 80 00 01       	mov    0x1008010,%eax
 1003e42:	6b c0 6c             	imul   $0x6c,%eax,%eax
 1003e45:	83 c0 40             	add    $0x40,%eax
 1003e48:	05 00 a8 00 01       	add    $0x100a800,%eax
 1003e4d:	c7 40 04 00 00 00 00 	movl   $0x0,0x4(%eax)
 1003e54:	a1 10 80 00 01       	mov    0x1008010,%eax
 1003e59:	6b c0 6c             	imul   $0x6c,%eax,%eax
 1003e5c:	83 c0 40             	add    $0x40,%eax
 1003e5f:	05 00 a8 00 01       	add    $0x100a800,%eax
 1003e64:	c7 40 08 14 00 00 00 	movl   $0x14,0x8(%eax)
 1003e6b:	a1 10 80 00 01       	mov    0x1008010,%eax
 1003e70:	6b c0 6c             	imul   $0x6c,%eax,%eax
 1003e73:	83 c0 40             	add    $0x40,%eax
 1003e76:	05 00 a8 00 01       	add    $0x100a800,%eax
 1003e7b:	c7 40 0c 0c 00 00 00 	movl   $0xc,0xc(%eax)
 1003e82:	a1 10 80 00 01       	mov    0x1008010,%eax
 1003e87:	6b c0 6c             	imul   $0x6c,%eax,%eax
 1003e8a:	83 c0 50             	add    $0x50,%eax
 1003e8d:	05 00 a8 00 01       	add    $0x100a800,%eax
 1003e92:	c7 00 1c 00 00 00    	movl   $0x1c,(%eax)
 1003e98:	a1 10 80 00 01       	mov    0x1008010,%eax
 1003e9d:	6b c0 6c             	imul   $0x6c,%eax,%eax
 1003ea0:	83 c0 50             	add    $0x50,%eax
 1003ea3:	05 00 a8 00 01       	add    $0x100a800,%eax
 1003ea8:	c7 40 04 14 00 00 00 	movl   $0x14,0x4(%eax)
 1003eaf:	a1 10 80 00 01       	mov    0x1008010,%eax
 1003eb4:	6b c0 6c             	imul   $0x6c,%eax,%eax
 1003eb7:	83 c0 50             	add    $0x50,%eax
 1003eba:	05 00 a8 00 01       	add    $0x100a800,%eax
 1003ebf:	c7 40 08 2c 00 00 00 	movl   $0x2c,0x8(%eax)
 1003ec6:	a1 10 80 00 01       	mov    0x1008010,%eax
 1003ecb:	6b c0 6c             	imul   $0x6c,%eax,%eax
 1003ece:	83 c0 50             	add    $0x50,%eax
 1003ed1:	05 00 a8 00 01       	add    $0x100a800,%eax
 1003ed6:	c7 40 0c 14 00 00 00 	movl   $0x14,0xc(%eax)
 1003edd:	a1 10 80 00 01       	mov    0x1008010,%eax
 1003ee2:	8b 15 10 80 00 01    	mov    0x1008010,%edx
 1003ee8:	83 c2 11             	add    $0x11,%edx
 1003eeb:	c1 e2 03             	shl    $0x3,%edx
 1003eee:	6b c0 6c             	imul   $0x6c,%eax,%eax
 1003ef1:	83 c0 60             	add    $0x60,%eax
 1003ef4:	05 00 a8 00 01       	add    $0x100a800,%eax
 1003ef9:	89 10                	mov    %edx,(%eax)
 1003efb:	a1 10 80 00 01       	mov    0x1008010,%eax
 1003f00:	6b c0 6c             	imul   $0x6c,%eax,%eax
 1003f03:	83 c0 60             	add    $0x60,%eax
 1003f06:	05 00 a8 00 01       	add    $0x100a800,%eax
 1003f0b:	c7 40 04 00 00 00 00 	movl   $0x0,0x4(%eax)
 1003f12:	c7 40 08 00 00 00 00 	movl   $0x0,0x8(%eax)
 1003f19:	8b 15 0c 80 00 01    	mov    0x100800c,%edx
 1003f1f:	89 d0                	mov    %edx,%eax
 1003f21:	01 c0                	add    %eax,%eax
 1003f23:	01 d0                	add    %edx,%eax
 1003f25:	01 c0                	add    %eax,%eax
 1003f27:	c1 e0 03             	shl    $0x3,%eax
 1003f2a:	05 c0 9b 00 01       	add    $0x1009bc0,%eax
 1003f2f:	89 c2                	mov    %eax,%edx
 1003f31:	a1 10 80 00 01       	mov    0x1008010,%eax
 1003f36:	83 c0 11             	add    $0x11,%eax
 1003f39:	6a 4f                	push   $0x4f
 1003f3b:	68 82 00 00 00       	push   $0x82
 1003f40:	6a 30                	push   $0x30
 1003f42:	52                   	push   %edx
 1003f43:	50                   	push   %eax
 1003f44:	e8 68 d6 ff ff       	call   10015b1 <gdt_set_gate>
 1003f49:	83 c4 14             	add    $0x14,%esp
 1003f4c:	a1 10 80 00 01       	mov    0x1008010,%eax
 1003f51:	6b c0 6c             	imul   $0x6c,%eax,%eax
 1003f54:	05 00 a8 00 01       	add    $0x100a800,%eax
 1003f59:	89 c2                	mov    %eax,%edx
 1003f5b:	a1 10 80 00 01       	mov    0x1008010,%eax
 1003f60:	83 c0 10             	add    $0x10,%eax
 1003f63:	68 89 00 00 00       	push   $0x89
 1003f68:	6a 6c                	push   $0x6c
 1003f6a:	52                   	push   %edx
 1003f6b:	50                   	push   %eax
 1003f6c:	e8 ce d5 ff ff       	call   100153f <tss_set_gate>
 1003f71:	83 c4 10             	add    $0x10,%esp
 1003f74:	8b 15 0c 80 00 01    	mov    0x100800c,%edx
 1003f7a:	89 d0                	mov    %edx,%eax
 1003f7c:	01 c0                	add    %eax,%eax
 1003f7e:	01 d0                	add    %edx,%eax
 1003f80:	01 c0                	add    %eax,%eax
 1003f82:	83 ec 0c             	sub    $0xc,%esp
 1003f85:	6a 00                	push   $0x0
 1003f87:	6a 00                	push   $0x0
 1003f89:	6a 00                	push   $0x0
 1003f8b:	6a 00                	push   $0x0
 1003f8d:	50                   	push   %eax
 1003f8e:	e8 2a 01 00 00       	call   10040bd <ldt_set_gate>
 1003f93:	83 c4 20             	add    $0x20,%esp
 1003f96:	8b 15 0c 80 00 01    	mov    0x100800c,%edx
 1003f9c:	89 d0                	mov    %edx,%eax
 1003f9e:	01 c0                	add    %eax,%eax
 1003fa0:	01 d0                	add    %edx,%eax
 1003fa2:	01 c0                	add    %eax,%eax
 1003fa4:	83 c0 01             	add    $0x1,%eax
 1003fa7:	83 ec 0c             	sub    $0xc,%esp
 1003faa:	68 cf 00 00 00       	push   $0xcf
 1003faf:	68 9a 00 00 00       	push   $0x9a
 1003fb4:	6a ff                	push   $0xffffffff
 1003fb6:	6a 00                	push   $0x0
 1003fb8:	50                   	push   %eax
 1003fb9:	e8 ff 00 00 00       	call   10040bd <ldt_set_gate>
 1003fbe:	83 c4 20             	add    $0x20,%esp
 1003fc1:	8b 15 0c 80 00 01    	mov    0x100800c,%edx
 1003fc7:	89 d0                	mov    %edx,%eax
 1003fc9:	01 c0                	add    %eax,%eax
 1003fcb:	01 d0                	add    %edx,%eax
 1003fcd:	01 c0                	add    %eax,%eax
 1003fcf:	83 c0 02             	add    $0x2,%eax
 1003fd2:	83 ec 0c             	sub    $0xc,%esp
 1003fd5:	68 cf 00 00 00       	push   $0xcf
 1003fda:	68 92 00 00 00       	push   $0x92
 1003fdf:	6a ff                	push   $0xffffffff
 1003fe1:	6a 00                	push   $0x0
 1003fe3:	50                   	push   %eax
 1003fe4:	e8 d4 00 00 00       	call   10040bd <ldt_set_gate>
 1003fe9:	83 c4 20             	add    $0x20,%esp
 1003fec:	a1 0c 80 00 01       	mov    0x100800c,%eax
 1003ff1:	69 c0 28 04 00 00    	imul   $0x428,%eax,%eax
 1003ff7:	83 c0 20             	add    $0x20,%eax
 1003ffa:	05 40 b4 00 01       	add    $0x100b440,%eax
 1003fff:	83 c0 08             	add    $0x8,%eax
 1004002:	89 c1                	mov    %eax,%ecx
 1004004:	8b 15 0c 80 00 01    	mov    0x100800c,%edx
 100400a:	89 d0                	mov    %edx,%eax
 100400c:	01 c0                	add    %eax,%eax
 100400e:	01 d0                	add    %edx,%eax
 1004010:	01 c0                	add    %eax,%eax
 1004012:	83 c0 03             	add    $0x3,%eax
 1004015:	83 ec 0c             	sub    $0xc,%esp
 1004018:	6a 4f                	push   $0x4f
 100401a:	68 92 00 00 00       	push   $0x92
 100401f:	68 00 02 00 00       	push   $0x200
 1004024:	51                   	push   %ecx
 1004025:	50                   	push   %eax
 1004026:	e8 92 00 00 00       	call   10040bd <ldt_set_gate>
 100402b:	83 c4 20             	add    $0x20,%esp
 100402e:	a1 0c 80 00 01       	mov    0x100800c,%eax
 1004033:	69 c0 28 04 00 00    	imul   $0x428,%eax,%eax
 1004039:	05 20 02 00 00       	add    $0x220,%eax
 100403e:	05 40 b4 00 01       	add    $0x100b440,%eax
 1004043:	83 c0 08             	add    $0x8,%eax
 1004046:	89 c1                	mov    %eax,%ecx
 1004048:	8b 15 0c 80 00 01    	mov    0x100800c,%edx
 100404e:	89 d0                	mov    %edx,%eax
 1004050:	01 c0                	add    %eax,%eax
 1004052:	01 d0                	add    %edx,%eax
 1004054:	01 c0                	add    %eax,%eax
 1004056:	83 c0 04             	add    $0x4,%eax
 1004059:	83 ec 0c             	sub    $0xc,%esp
 100405c:	6a 4f                	push   $0x4f
 100405e:	68 92 00 00 00       	push   $0x92
 1004063:	68 00 02 00 00       	push   $0x200
 1004068:	51                   	push   %ecx
 1004069:	50                   	push   %eax
 100406a:	e8 4e 00 00 00       	call   10040bd <ldt_set_gate>
 100406f:	83 c4 20             	add    $0x20,%esp
 1004072:	8b 15 0c 80 00 01    	mov    0x100800c,%edx
 1004078:	89 d0                	mov    %edx,%eax
 100407a:	01 c0                	add    %eax,%eax
 100407c:	01 d0                	add    %edx,%eax
 100407e:	01 c0                	add    %eax,%eax
 1004080:	83 c0 05             	add    $0x5,%eax
 1004083:	83 ec 0c             	sub    $0xc,%esp
 1004086:	68 cf 00 00 00       	push   $0xcf
 100408b:	68 92 00 00 00       	push   $0x92
 1004090:	6a ff                	push   $0xffffffff
 1004092:	6a 00                	push   $0x0
 1004094:	50                   	push   %eax
 1004095:	e8 23 00 00 00       	call   10040bd <ldt_set_gate>
 100409a:	83 c4 20             	add    $0x20,%esp
 100409d:	a1 10 80 00 01       	mov    0x1008010,%eax
 10040a2:	83 c0 02             	add    $0x2,%eax
 10040a5:	a3 10 80 00 01       	mov    %eax,0x1008010
 10040aa:	a1 0c 80 00 01       	mov    0x100800c,%eax
 10040af:	83 c0 01             	add    $0x1,%eax
 10040b2:	a3 0c 80 00 01       	mov    %eax,0x100800c
 10040b7:	0f b7 45 f6          	movzwl -0xa(%ebp),%eax
 10040bb:	c9                   	leave  
 10040bc:	c3                   	ret    

010040bd <ldt_set_gate>:
 10040bd:	55                   	push   %ebp
 10040be:	89 e5                	mov    %esp,%ebp
 10040c0:	83 ec 08             	sub    $0x8,%esp
 10040c3:	8b 55 14             	mov    0x14(%ebp),%edx
 10040c6:	8b 45 18             	mov    0x18(%ebp),%eax
 10040c9:	88 55 fc             	mov    %dl,-0x4(%ebp)
 10040cc:	88 45 f8             	mov    %al,-0x8(%ebp)
 10040cf:	8b 45 0c             	mov    0xc(%ebp),%eax
 10040d2:	89 c2                	mov    %eax,%edx
 10040d4:	8b 45 08             	mov    0x8(%ebp),%eax
 10040d7:	66 89 14 c5 c2 9b 00 	mov    %dx,0x1009bc2(,%eax,8)
 10040de:	01 
 10040df:	8b 45 0c             	mov    0xc(%ebp),%eax
 10040e2:	c1 e8 10             	shr    $0x10,%eax
 10040e5:	89 c2                	mov    %eax,%edx
 10040e7:	8b 45 08             	mov    0x8(%ebp),%eax
 10040ea:	88 14 c5 c4 9b 00 01 	mov    %dl,0x1009bc4(,%eax,8)
 10040f1:	8b 45 0c             	mov    0xc(%ebp),%eax
 10040f4:	c1 e8 18             	shr    $0x18,%eax
 10040f7:	89 c2                	mov    %eax,%edx
 10040f9:	8b 45 08             	mov    0x8(%ebp),%eax
 10040fc:	88 14 c5 c7 9b 00 01 	mov    %dl,0x1009bc7(,%eax,8)
 1004103:	8b 45 10             	mov    0x10(%ebp),%eax
 1004106:	89 c2                	mov    %eax,%edx
 1004108:	8b 45 08             	mov    0x8(%ebp),%eax
 100410b:	66 89 14 c5 c0 9b 00 	mov    %dx,0x1009bc0(,%eax,8)
 1004112:	01 
 1004113:	8b 45 10             	mov    0x10(%ebp),%eax
 1004116:	c1 e8 10             	shr    $0x10,%eax
 1004119:	83 e0 0f             	and    $0xf,%eax
 100411c:	89 c2                	mov    %eax,%edx
 100411e:	8b 45 08             	mov    0x8(%ebp),%eax
 1004121:	88 14 c5 c6 9b 00 01 	mov    %dl,0x1009bc6(,%eax,8)
 1004128:	8b 45 08             	mov    0x8(%ebp),%eax
 100412b:	0f b6 04 c5 c6 9b 00 	movzbl 0x1009bc6(,%eax,8),%eax
 1004132:	01 
 1004133:	89 c2                	mov    %eax,%edx
 1004135:	0f b6 45 f8          	movzbl -0x8(%ebp),%eax
 1004139:	83 e0 f0             	and    $0xfffffff0,%eax
 100413c:	09 d0                	or     %edx,%eax
 100413e:	89 c2                	mov    %eax,%edx
 1004140:	8b 45 08             	mov    0x8(%ebp),%eax
 1004143:	88 14 c5 c6 9b 00 01 	mov    %dl,0x1009bc6(,%eax,8)
 100414a:	8b 45 08             	mov    0x8(%ebp),%eax
 100414d:	0f b6 55 fc          	movzbl -0x4(%ebp),%edx
 1004151:	88 14 c5 c5 9b 00 01 	mov    %dl,0x1009bc5(,%eax,8)
 1004158:	c9                   	leave  
 1004159:	c3                   	ret    

0100415a <TaskManagerGUI>:
 100415a:	55                   	push   %ebp
 100415b:	89 e5                	mov    %esp,%ebp
 100415d:	83 ec 18             	sub    $0x18,%esp
 1004160:	e8 78 c3 ff ff       	call   10004dd <clrscr>
 1004165:	6a 00                	push   $0x0
 1004167:	e8 4b c3 ff ff       	call   10004b7 <setposition>
 100416c:	83 c4 04             	add    $0x4,%esp
 100416f:	83 ec 0c             	sub    $0xc,%esp
 1004172:	68 ec 66 00 01       	push   $0x10066ec
 1004177:	e8 23 c1 ff ff       	call   100029f <printf>
 100417c:	83 c4 10             	add    $0x10,%esp
 100417f:	83 ec 08             	sub    $0x8,%esp
 1004182:	6a 08                	push   $0x8
 1004184:	6a 0a                	push   $0xa
 1004186:	e8 48 c0 ff ff       	call   10001d3 <HexInAsciiSz>
 100418b:	83 c4 10             	add    $0x10,%esp
 100418e:	83 ec 0c             	sub    $0xc,%esp
 1004191:	68 10 67 00 01       	push   $0x1006710
 1004196:	e8 04 c1 ff ff       	call   100029f <printf>
 100419b:	83 c4 10             	add    $0x10,%esp
 100419e:	83 ec 0c             	sub    $0xc,%esp
 10041a1:	68 64 67 00 01       	push   $0x1006764
 10041a6:	e8 f4 c0 ff ff       	call   100029f <printf>
 10041ab:	83 c4 10             	add    $0x10,%esp
 10041ae:	83 ec 0c             	sub    $0xc,%esp
 10041b1:	68 b4 67 00 01       	push   $0x10067b4
 10041b6:	e8 e4 c0 ff ff       	call   100029f <printf>
 10041bb:	83 c4 10             	add    $0x10,%esp
 10041be:	c7 45 f4 00 00 00 00 	movl   $0x0,-0xc(%ebp)
 10041c5:	e9 d3 01 00 00       	jmp    100439d <TaskManagerGUI+0x243>
 10041ca:	8b 45 f4             	mov    -0xc(%ebp),%eax
 10041cd:	8b 04 85 20 80 00 01 	mov    0x1008020(,%eax,4),%eax
 10041d4:	85 c0                	test   %eax,%eax
 10041d6:	0f 84 bd 01 00 00    	je     1004399 <TaskManagerGUI+0x23f>
 10041dc:	8b 45 f4             	mov    -0xc(%ebp),%eax
 10041df:	69 c0 28 04 00 00    	imul   $0x428,%eax,%eax
 10041e5:	05 40 b4 00 01       	add    $0x100b440,%eax
 10041ea:	8b 00                	mov    (%eax),%eax
 10041ec:	c1 e0 10             	shl    $0x10,%eax
 10041ef:	83 ec 08             	sub    $0x8,%esp
 10041f2:	6a 04                	push   $0x4
 10041f4:	50                   	push   %eax
 10041f5:	e8 d9 bf ff ff       	call   10001d3 <HexInAsciiSz>
 10041fa:	83 c4 10             	add    $0x10,%esp
 10041fd:	8b 45 f4             	mov    -0xc(%ebp),%eax
 1004200:	69 c0 28 04 00 00    	imul   $0x428,%eax,%eax
 1004206:	83 c0 20             	add    $0x20,%eax
 1004209:	05 40 b4 00 01       	add    $0x100b440,%eax
 100420e:	0f b6 40 01          	movzbl 0x1(%eax),%eax
 1004212:	0f b6 c0             	movzbl %al,%eax
 1004215:	83 f8 02             	cmp    $0x2,%eax
 1004218:	74 1c                	je     1004236 <TaskManagerGUI+0xdc>
 100421a:	83 f8 03             	cmp    $0x3,%eax
 100421d:	74 29                	je     1004248 <TaskManagerGUI+0xee>
 100421f:	83 f8 01             	cmp    $0x1,%eax
 1004222:	75 35                	jne    1004259 <TaskManagerGUI+0xff>
 1004224:	83 ec 0c             	sub    $0xc,%esp
 1004227:	68 08 68 00 01       	push   $0x1006808
 100422c:	e8 6e c0 ff ff       	call   100029f <printf>
 1004231:	83 c4 10             	add    $0x10,%esp
 1004234:	eb 23                	jmp    1004259 <TaskManagerGUI+0xff>
 1004236:	83 ec 0c             	sub    $0xc,%esp
 1004239:	68 17 68 00 01       	push   $0x1006817
 100423e:	e8 5c c0 ff ff       	call   100029f <printf>
 1004243:	83 c4 10             	add    $0x10,%esp
 1004246:	eb 11                	jmp    1004259 <TaskManagerGUI+0xff>
 1004248:	83 ec 0c             	sub    $0xc,%esp
 100424b:	68 26 68 00 01       	push   $0x1006826
 1004250:	e8 4a c0 ff ff       	call   100029f <printf>
 1004255:	83 c4 10             	add    $0x10,%esp
 1004258:	90                   	nop
 1004259:	8b 45 f4             	mov    -0xc(%ebp),%eax
 100425c:	01 c0                	add    %eax,%eax
 100425e:	6b c0 6c             	imul   $0x6c,%eax,%eax
 1004261:	83 c0 20             	add    $0x20,%eax
 1004264:	05 00 a8 00 01       	add    $0x100a800,%eax
 1004269:	8b 00                	mov    (%eax),%eax
 100426b:	83 ec 08             	sub    $0x8,%esp
 100426e:	6a 08                	push   $0x8
 1004270:	50                   	push   %eax
 1004271:	e8 5d bf ff ff       	call   10001d3 <HexInAsciiSz>
 1004276:	83 c4 10             	add    $0x10,%esp
 1004279:	83 ec 0c             	sub    $0xc,%esp
 100427c:	68 35 68 00 01       	push   $0x1006835
 1004281:	e8 19 c0 ff ff       	call   100029f <printf>
 1004286:	83 c4 10             	add    $0x10,%esp
 1004289:	8b 45 f4             	mov    -0xc(%ebp),%eax
 100428c:	01 c0                	add    %eax,%eax
 100428e:	6b c0 6c             	imul   $0x6c,%eax,%eax
 1004291:	83 c0 20             	add    $0x20,%eax
 1004294:	05 00 a8 00 01       	add    $0x100a800,%eax
 1004299:	8b 40 04             	mov    0x4(%eax),%eax
 100429c:	83 ec 08             	sub    $0x8,%esp
 100429f:	6a 08                	push   $0x8
 10042a1:	50                   	push   %eax
 10042a2:	e8 2c bf ff ff       	call   10001d3 <HexInAsciiSz>
 10042a7:	83 c4 10             	add    $0x10,%esp
 10042aa:	83 ec 0c             	sub    $0xc,%esp
 10042ad:	68 3b 68 00 01       	push   $0x100683b
 10042b2:	e8 e8 bf ff ff       	call   100029f <printf>
 10042b7:	83 c4 10             	add    $0x10,%esp
 10042ba:	8b 45 f4             	mov    -0xc(%ebp),%eax
 10042bd:	01 c0                	add    %eax,%eax
 10042bf:	6b c0 6c             	imul   $0x6c,%eax,%eax
 10042c2:	05 00 a8 00 01       	add    $0x100a800,%eax
 10042c7:	8b 00                	mov    (%eax),%eax
 10042c9:	83 ec 08             	sub    $0x8,%esp
 10042cc:	6a 08                	push   $0x8
 10042ce:	50                   	push   %eax
 10042cf:	e8 ff be ff ff       	call   10001d3 <HexInAsciiSz>
 10042d4:	83 c4 10             	add    $0x10,%esp
 10042d7:	83 ec 0c             	sub    $0xc,%esp
 10042da:	68 3f 68 00 01       	push   $0x100683f
 10042df:	e8 bb bf ff ff       	call   100029f <printf>
 10042e4:	83 c4 10             	add    $0x10,%esp
 10042e7:	8b 45 f4             	mov    -0xc(%ebp),%eax
 10042ea:	69 c0 28 04 00 00    	imul   $0x428,%eax,%eax
 10042f0:	83 c0 20             	add    $0x20,%eax
 10042f3:	05 40 b4 00 01       	add    $0x100b440,%eax
 10042f8:	8b 40 04             	mov    0x4(%eax),%eax
 10042fb:	83 ec 08             	sub    $0x8,%esp
 10042fe:	6a 08                	push   $0x8
 1004300:	50                   	push   %eax
 1004301:	e8 cd be ff ff       	call   10001d3 <HexInAsciiSz>
 1004306:	83 c4 10             	add    $0x10,%esp
 1004309:	83 ec 0c             	sub    $0xc,%esp
 100430c:	68 35 68 00 01       	push   $0x1006835
 1004311:	e8 89 bf ff ff       	call   100029f <printf>
 1004316:	83 c4 10             	add    $0x10,%esp
 1004319:	8b 45 f4             	mov    -0xc(%ebp),%eax
 100431c:	69 c0 28 04 00 00    	imul   $0x428,%eax,%eax
 1004322:	83 c0 20             	add    $0x20,%eax
 1004325:	05 40 b4 00 01       	add    $0x100b440,%eax
 100432a:	0f b6 40 02          	movzbl 0x2(%eax),%eax
 100432e:	0f b6 c0             	movzbl %al,%eax
 1004331:	83 f8 02             	cmp    $0x2,%eax
 1004334:	74 0c                	je     1004342 <TaskManagerGUI+0x1e8>
 1004336:	83 f8 03             	cmp    $0x3,%eax
 1004339:	74 19                	je     1004354 <TaskManagerGUI+0x1fa>
 100433b:	83 f8 01             	cmp    $0x1,%eax
 100433e:	74 26                	je     1004366 <TaskManagerGUI+0x20c>
 1004340:	eb 36                	jmp    1004378 <TaskManagerGUI+0x21e>
 1004342:	83 ec 0c             	sub    $0xc,%esp
 1004345:	68 44 68 00 01       	push   $0x1006844
 100434a:	e8 50 bf ff ff       	call   100029f <printf>
 100434f:	83 c4 10             	add    $0x10,%esp
 1004352:	eb 35                	jmp    1004389 <TaskManagerGUI+0x22f>
 1004354:	83 ec 0c             	sub    $0xc,%esp
 1004357:	68 4a 68 00 01       	push   $0x100684a
 100435c:	e8 3e bf ff ff       	call   100029f <printf>
 1004361:	83 c4 10             	add    $0x10,%esp
 1004364:	eb 23                	jmp    1004389 <TaskManagerGUI+0x22f>
 1004366:	83 ec 0c             	sub    $0xc,%esp
 1004369:	68 4f 68 00 01       	push   $0x100684f
 100436e:	e8 2c bf ff ff       	call   100029f <printf>
 1004373:	83 c4 10             	add    $0x10,%esp
 1004376:	eb 11                	jmp    1004389 <TaskManagerGUI+0x22f>
 1004378:	83 ec 0c             	sub    $0xc,%esp
 100437b:	68 56 68 00 01       	push   $0x1006856
 1004380:	e8 1a bf ff ff       	call   100029f <printf>
 1004385:	83 c4 10             	add    $0x10,%esp
 1004388:	90                   	nop
 1004389:	83 ec 0c             	sub    $0xc,%esp
 100438c:	68 5d 68 00 01       	push   $0x100685d
 1004391:	e8 09 bf ff ff       	call   100029f <printf>
 1004396:	83 c4 10             	add    $0x10,%esp
 1004399:	83 45 f4 01          	addl   $0x1,-0xc(%ebp)
 100439d:	83 7d f4 09          	cmpl   $0x9,-0xc(%ebp)
 10043a1:	0f 8e 23 fe ff ff    	jle    10041ca <TaskManagerGUI+0x70>
 10043a7:	e9 b9 fd ff ff       	jmp    1004165 <TaskManagerGUI+0xb>

010043ac <init>:
 10043ac:	55                   	push   %ebp
 10043ad:	89 e5                	mov    %esp,%ebp
 10043af:	68 ff ff ff 00       	push   $0xffffff
 10043b4:	e8 55 bc ff ff       	call   100000e <WaitTick>
 10043b9:	83 c4 04             	add    $0x4,%esp
 10043bc:	c9                   	leave  
 10043bd:	c3                   	ret    

010043be <init2>:
 10043be:	55                   	push   %ebp
 10043bf:	89 e5                	mov    %esp,%ebp
 10043c1:	68 ff ff 00 00       	push   $0xffff
 10043c6:	e8 43 bc ff ff       	call   100000e <WaitTick>
 10043cb:	83 c4 04             	add    $0x4,%esp
 10043ce:	eb f1                	jmp    10043c1 <init2+0x3>

010043d0 <TaskControl>:
 10043d0:	55                   	push   %ebp
 10043d1:	89 e5                	mov    %esp,%ebp
 10043d3:	e8 30 cf ff ff       	call   1001308 <IRQ_Open>
 10043d8:	e8 49 bc ff ff       	call   1000026 <idt_open>
 10043dd:	a1 48 80 00 01       	mov    0x1008048,%eax
 10043e2:	83 c0 01             	add    $0x1,%eax
 10043e5:	a3 48 80 00 01       	mov    %eax,0x1008048
 10043ea:	a1 48 80 00 01       	mov    0x1008048,%eax
 10043ef:	83 f8 0a             	cmp    $0xa,%eax
 10043f2:	75 0a                	jne    10043fe <TaskControl+0x2e>
 10043f4:	c7 05 48 80 00 01 01 	movl   $0x1,0x1008048
 10043fb:	00 00 00 
 10043fe:	a1 48 80 00 01       	mov    0x1008048,%eax
 1004403:	8b 04 85 20 80 00 01 	mov    0x1008020(,%eax,4),%eax
 100440a:	85 c0                	test   %eax,%eax
 100440c:	0f 84 11 01 00 00    	je     1004523 <TaskControl+0x153>
 1004412:	a1 48 80 00 01       	mov    0x1008048,%eax
 1004417:	85 c0                	test   %eax,%eax
 1004419:	0f 84 04 01 00 00    	je     1004523 <TaskControl+0x153>
 100441f:	a1 48 80 00 01       	mov    0x1008048,%eax
 1004424:	83 c0 08             	add    $0x8,%eax
 1004427:	01 c0                	add    %eax,%eax
 1004429:	68 89 00 00 00       	push   $0x89
 100442e:	50                   	push   %eax
 100442f:	e8 7e f6 ff ff       	call   1003ab2 <tss_access>
 1004434:	83 c4 08             	add    $0x8,%esp
 1004437:	a1 48 80 00 01       	mov    0x1008048,%eax
 100443c:	69 d0 28 04 00 00    	imul   $0x428,%eax,%edx
 1004442:	83 c2 20             	add    $0x20,%edx
 1004445:	81 c2 40 b4 00 01    	add    $0x100b440,%edx
 100444b:	8b 52 04             	mov    0x4(%edx),%edx
 100444e:	83 c2 01             	add    $0x1,%edx
 1004451:	69 c0 28 04 00 00    	imul   $0x428,%eax,%eax
 1004457:	83 c0 20             	add    $0x20,%eax
 100445a:	05 40 b4 00 01       	add    $0x100b440,%eax
 100445f:	89 50 04             	mov    %edx,0x4(%eax)
 1004462:	b0 20                	mov    $0x20,%al
 1004464:	e6 20                	out    %al,$0x20
 1004466:	e6 a0                	out    %al,$0xa0
 1004468:	a1 48 80 00 01       	mov    0x1008048,%eax
 100446d:	8b 04 85 20 80 00 01 	mov    0x1008020(,%eax,4),%eax
 1004474:	3d d0 00 00 00       	cmp    $0xd0,%eax
 1004479:	74 7c                	je     10044f7 <TaskControl+0x127>
 100447b:	3d d0 00 00 00       	cmp    $0xd0,%eax
 1004480:	77 2a                	ja     10044ac <TaskControl+0xdc>
 1004482:	3d a0 00 00 00       	cmp    $0xa0,%eax
 1004487:	74 53                	je     10044dc <TaskControl+0x10c>
 1004489:	3d a0 00 00 00       	cmp    $0xa0,%eax
 100448e:	77 0c                	ja     100449c <TaskControl+0xcc>
 1004490:	3d 90 00 00 00       	cmp    $0x90,%eax
 1004495:	74 3c                	je     10044d3 <TaskControl+0x103>
 1004497:	e9 87 00 00 00       	jmp    1004523 <TaskControl+0x153>
 100449c:	3d b0 00 00 00       	cmp    $0xb0,%eax
 10044a1:	74 42                	je     10044e5 <TaskControl+0x115>
 10044a3:	3d c0 00 00 00       	cmp    $0xc0,%eax
 10044a8:	74 44                	je     10044ee <TaskControl+0x11e>
 10044aa:	eb 77                	jmp    1004523 <TaskControl+0x153>
 10044ac:	3d f0 00 00 00       	cmp    $0xf0,%eax
 10044b1:	74 56                	je     1004509 <TaskControl+0x139>
 10044b3:	3d f0 00 00 00       	cmp    $0xf0,%eax
 10044b8:	77 09                	ja     10044c3 <TaskControl+0xf3>
 10044ba:	3d e0 00 00 00       	cmp    $0xe0,%eax
 10044bf:	74 3f                	je     1004500 <TaskControl+0x130>
 10044c1:	eb 60                	jmp    1004523 <TaskControl+0x153>
 10044c3:	3d 00 01 00 00       	cmp    $0x100,%eax
 10044c8:	74 48                	je     1004512 <TaskControl+0x142>
 10044ca:	3d 10 01 00 00       	cmp    $0x110,%eax
 10044cf:	74 4a                	je     100451b <TaskControl+0x14b>
 10044d1:	eb 50                	jmp    1004523 <TaskControl+0x153>
 10044d3:	ea 00 00 00 00 90 00 	ljmp   $0x90,$0x0
 10044da:	eb 47                	jmp    1004523 <TaskControl+0x153>
 10044dc:	ea 00 00 00 00 a0 00 	ljmp   $0xa0,$0x0
 10044e3:	eb 3e                	jmp    1004523 <TaskControl+0x153>
 10044e5:	ea 00 00 00 00 b0 00 	ljmp   $0xb0,$0x0
 10044ec:	eb 35                	jmp    1004523 <TaskControl+0x153>
 10044ee:	ea 00 00 00 00 c0 00 	ljmp   $0xc0,$0x0
 10044f5:	eb 2c                	jmp    1004523 <TaskControl+0x153>
 10044f7:	ea 00 00 00 00 d0 00 	ljmp   $0xd0,$0x0
 10044fe:	eb 23                	jmp    1004523 <TaskControl+0x153>
 1004500:	ea 00 00 00 00 e0 00 	ljmp   $0xe0,$0x0
 1004507:	eb 1a                	jmp    1004523 <TaskControl+0x153>
 1004509:	ea 00 00 00 00 f0 00 	ljmp   $0xf0,$0x0
 1004510:	eb 11                	jmp    1004523 <TaskControl+0x153>
 1004512:	ea 00 00 00 00 00 01 	ljmp   $0x100,$0x0
 1004519:	eb 08                	jmp    1004523 <TaskControl+0x153>
 100451b:	ea 00 00 00 00 10 01 	ljmp   $0x110,$0x0
 1004522:	90                   	nop
 1004523:	e9 b5 fe ff ff       	jmp    10043dd <TaskControl+0xd>

01004528 <TaskInit>:
 1004528:	55                   	push   %ebp
 1004529:	89 e5                	mov    %esp,%ebp
 100452b:	83 ec 08             	sub    $0x8,%esp
 100452e:	b8 d0 43 00 01       	mov    $0x10043d0,%eax
 1004533:	83 c0 24             	add    $0x24,%eax
 1004536:	83 ec 0c             	sub    $0xc,%esp
 1004539:	50                   	push   %eax
 100453a:	e8 fa f6 ff ff       	call   1003c39 <NewProccess>
 100453f:	83 c4 10             	add    $0x10,%esp
 1004542:	b8 5a 41 00 01       	mov    $0x100415a,%eax
 1004547:	83 c0 24             	add    $0x24,%eax
 100454a:	83 ec 0c             	sub    $0xc,%esp
 100454d:	50                   	push   %eax
 100454e:	e8 e6 f6 ff ff       	call   1003c39 <NewProccess>
 1004553:	83 c4 10             	add    $0x10,%esp
 1004556:	b8 be 43 00 01       	mov    $0x10043be,%eax
 100455b:	83 c0 24             	add    $0x24,%eax
 100455e:	83 ec 0c             	sub    $0xc,%esp
 1004561:	50                   	push   %eax
 1004562:	e8 d2 f6 ff ff       	call   1003c39 <NewProccess>
 1004567:	83 c4 10             	add    $0x10,%esp
 100456a:	83 ec 0c             	sub    $0xc,%esp
 100456d:	68 61 68 00 01       	push   $0x1006861
 1004572:	e8 5d f5 ff ff       	call   1003ad4 <LoadProccess>
 1004577:	83 c4 10             	add    $0x10,%esp
 100457a:	fa                   	cli    
 100457b:	f4                   	hlt    
 100457c:	eb fe                	jmp    100457c <TaskInit+0x54>

0100457e <kernel_main>:
 100457e:	55                   	push   %ebp
 100457f:	89 e5                	mov    %esp,%ebp
 1004581:	83 ec 08             	sub    $0x8,%esp
 1004584:	6a 02                	push   $0x2
 1004586:	e8 39 bf ff ff       	call   10004c4 <setcolor>
 100458b:	83 c4 04             	add    $0x4,%esp
 100458e:	e8 4a bf ff ff       	call   10004dd <clrscr>
 1004593:	83 ec 0c             	sub    $0xc,%esp
 1004596:	68 77 68 00 01       	push   $0x1006877
 100459b:	e8 ff bc ff ff       	call   100029f <printf>
 10045a0:	83 c4 10             	add    $0x10,%esp
 10045a3:	e8 a6 d0 ff ff       	call   100164e <gdt_install>
 10045a8:	e8 a5 c5 ff ff       	call   1000b52 <idt_install>
 10045ad:	e8 35 db ff ff       	call   10020e7 <init_device>
 10045b2:	83 ec 0c             	sub    $0xc,%esp
 10045b5:	ff 75 08             	pushl  0x8(%ebp)
 10045b8:	e8 61 f4 ff ff       	call   1003a1e <init_memory>
 10045bd:	83 c4 10             	add    $0x10,%esp
 10045c0:	e8 63 ff ff ff       	call   1004528 <TaskInit>
 10045c5:	83 ec 0c             	sub    $0xc,%esp
 10045c8:	68 86 68 00 01       	push   $0x1006886
 10045cd:	e8 cd bc ff ff       	call   100029f <printf>
 10045d2:	83 c4 10             	add    $0x10,%esp
 10045d5:	c9                   	leave  
 10045d6:	c3                   	ret    
 10045d7:	66 90                	xchg   %ax,%ax
 10045d9:	66 90                	xchg   %ax,%ax
 10045db:	66 90                	xchg   %ax,%ax
 10045dd:	66 90                	xchg   %ax,%ax
 10045df:	66 90                	xchg   %ax,%ax
 10045e1:	66 90                	xchg   %ax,%ax
 10045e3:	66 90                	xchg   %ax,%ax
 10045e5:	66 90                	xchg   %ax,%ax
 10045e7:	66 90                	xchg   %ax,%ax
 10045e9:	66 90                	xchg   %ax,%ax
 10045eb:	66 90                	xchg   %ax,%ax
 10045ed:	66 90                	xchg   %ax,%ax
 10045ef:	66 90                	xchg   %ax,%ax
 10045f1:	66 90                	xchg   %ax,%ax
 10045f3:	66 90                	xchg   %ax,%ax
 10045f5:	66 90                	xchg   %ax,%ax
 10045f7:	66 90                	xchg   %ax,%ax
 10045f9:	66 90                	xchg   %ax,%ax
 10045fb:	66 90                	xchg   %ax,%ax
 10045fd:	66 90                	xchg   %ax,%ax
 10045ff:	66 90                	xchg   %ax,%ax
 1004601:	66 90                	xchg   %ax,%ax
 1004603:	66 90                	xchg   %ax,%ax
 1004605:	66 90                	xchg   %ax,%ax
 1004607:	66 90                	xchg   %ax,%ax
 1004609:	66 90                	xchg   %ax,%ax
 100460b:	66 90                	xchg   %ax,%ax
 100460d:	66 90                	xchg   %ax,%ax
 100460f:	66 90                	xchg   %ax,%ax
 1004611:	66 90                	xchg   %ax,%ax
 1004613:	66 90                	xchg   %ax,%ax
 1004615:	66 90                	xchg   %ax,%ax
 1004617:	66 90                	xchg   %ax,%ax
 1004619:	66 90                	xchg   %ax,%ax
 100461b:	66 90                	xchg   %ax,%ax
 100461d:	66 90                	xchg   %ax,%ax
 100461f:	66 90                	xchg   %ax,%ax
 1004621:	66 90                	xchg   %ax,%ax
 1004623:	66 90                	xchg   %ax,%ax
 1004625:	66 90                	xchg   %ax,%ax
 1004627:	66 90                	xchg   %ax,%ax
 1004629:	66 90                	xchg   %ax,%ax
 100462b:	66 90                	xchg   %ax,%ax
 100462d:	66 90                	xchg   %ax,%ax
 100462f:	66 90                	xchg   %ax,%ax
 1004631:	66 90                	xchg   %ax,%ax
 1004633:	66 90                	xchg   %ax,%ax
 1004635:	66 90                	xchg   %ax,%ax
 1004637:	66 90                	xchg   %ax,%ax
 1004639:	66 90                	xchg   %ax,%ax
 100463b:	66 90                	xchg   %ax,%ax
 100463d:	66 90                	xchg   %ax,%ax
 100463f:	66 90                	xchg   %ax,%ax
 1004641:	66 90                	xchg   %ax,%ax
 1004643:	66 90                	xchg   %ax,%ax
 1004645:	66 90                	xchg   %ax,%ax
 1004647:	66 90                	xchg   %ax,%ax
 1004649:	66 90                	xchg   %ax,%ax
 100464b:	66 90                	xchg   %ax,%ax
 100464d:	66 90                	xchg   %ax,%ax
 100464f:	66 90                	xchg   %ax,%ax
 1004651:	66 90                	xchg   %ax,%ax
 1004653:	66 90                	xchg   %ax,%ax
 1004655:	66 90                	xchg   %ax,%ax
 1004657:	66 90                	xchg   %ax,%ax
 1004659:	66 90                	xchg   %ax,%ax
 100465b:	66 90                	xchg   %ax,%ax
 100465d:	66 90                	xchg   %ax,%ax
 100465f:	66 90                	xchg   %ax,%ax
 1004661:	66 90                	xchg   %ax,%ax
 1004663:	66 90                	xchg   %ax,%ax
 1004665:	66 90                	xchg   %ax,%ax
 1004667:	66 90                	xchg   %ax,%ax
 1004669:	66 90                	xchg   %ax,%ax
 100466b:	66 90                	xchg   %ax,%ax
 100466d:	66 90                	xchg   %ax,%ax
 100466f:	66 90                	xchg   %ax,%ax
 1004671:	66 90                	xchg   %ax,%ax
 1004673:	66 90                	xchg   %ax,%ax
 1004675:	66 90                	xchg   %ax,%ax
 1004677:	66 90                	xchg   %ax,%ax
 1004679:	66 90                	xchg   %ax,%ax
 100467b:	66 90                	xchg   %ax,%ax
 100467d:	66 90                	xchg   %ax,%ax
 100467f:	66 90                	xchg   %ax,%ax
 1004681:	66 90                	xchg   %ax,%ax
 1004683:	66 90                	xchg   %ax,%ax
 1004685:	66 90                	xchg   %ax,%ax
 1004687:	66 90                	xchg   %ax,%ax
 1004689:	66 90                	xchg   %ax,%ax
 100468b:	66 90                	xchg   %ax,%ax
 100468d:	66 90                	xchg   %ax,%ax
 100468f:	66 90                	xchg   %ax,%ax
 1004691:	66 90                	xchg   %ax,%ax
 1004693:	66 90                	xchg   %ax,%ax
 1004695:	66 90                	xchg   %ax,%ax
 1004697:	66 90                	xchg   %ax,%ax
 1004699:	66 90                	xchg   %ax,%ax
 100469b:	66 90                	xchg   %ax,%ax
 100469d:	66 90                	xchg   %ax,%ax
 100469f:	66 90                	xchg   %ax,%ax
 10046a1:	66 90                	xchg   %ax,%ax
 10046a3:	66 90                	xchg   %ax,%ax
 10046a5:	66 90                	xchg   %ax,%ax
 10046a7:	66 90                	xchg   %ax,%ax
 10046a9:	66 90                	xchg   %ax,%ax
 10046ab:	66 90                	xchg   %ax,%ax
 10046ad:	66 90                	xchg   %ax,%ax
 10046af:	66 90                	xchg   %ax,%ax
 10046b1:	66 90                	xchg   %ax,%ax
 10046b3:	66 90                	xchg   %ax,%ax
 10046b5:	66 90                	xchg   %ax,%ax
 10046b7:	66 90                	xchg   %ax,%ax
 10046b9:	66 90                	xchg   %ax,%ax
 10046bb:	66 90                	xchg   %ax,%ax
 10046bd:	66 90                	xchg   %ax,%ax
 10046bf:	66 90                	xchg   %ax,%ax
 10046c1:	66 90                	xchg   %ax,%ax
 10046c3:	66 90                	xchg   %ax,%ax
 10046c5:	66 90                	xchg   %ax,%ax
 10046c7:	66 90                	xchg   %ax,%ax
 10046c9:	66 90                	xchg   %ax,%ax
 10046cb:	66 90                	xchg   %ax,%ax
 10046cd:	66 90                	xchg   %ax,%ax
 10046cf:	66 90                	xchg   %ax,%ax
 10046d1:	66 90                	xchg   %ax,%ax
 10046d3:	66 90                	xchg   %ax,%ax
 10046d5:	66 90                	xchg   %ax,%ax
 10046d7:	66 90                	xchg   %ax,%ax
 10046d9:	66 90                	xchg   %ax,%ax
 10046db:	66 90                	xchg   %ax,%ax
 10046dd:	66 90                	xchg   %ax,%ax
 10046df:	66 90                	xchg   %ax,%ax
 10046e1:	66 90                	xchg   %ax,%ax
 10046e3:	66 90                	xchg   %ax,%ax
 10046e5:	66 90                	xchg   %ax,%ax
 10046e7:	66 90                	xchg   %ax,%ax
 10046e9:	66 90                	xchg   %ax,%ax
 10046eb:	66 90                	xchg   %ax,%ax
 10046ed:	66 90                	xchg   %ax,%ax
 10046ef:	66 90                	xchg   %ax,%ax
 10046f1:	66 90                	xchg   %ax,%ax
 10046f3:	66 90                	xchg   %ax,%ax
 10046f5:	66 90                	xchg   %ax,%ax
 10046f7:	66 90                	xchg   %ax,%ax
 10046f9:	66 90                	xchg   %ax,%ax
 10046fb:	66 90                	xchg   %ax,%ax
 10046fd:	66 90                	xchg   %ax,%ax
 10046ff:	66 90                	xchg   %ax,%ax
 1004701:	66 90                	xchg   %ax,%ax
 1004703:	66 90                	xchg   %ax,%ax
 1004705:	66 90                	xchg   %ax,%ax
 1004707:	66 90                	xchg   %ax,%ax
 1004709:	66 90                	xchg   %ax,%ax
 100470b:	66 90                	xchg   %ax,%ax
 100470d:	66 90                	xchg   %ax,%ax
 100470f:	66 90                	xchg   %ax,%ax
 1004711:	66 90                	xchg   %ax,%ax
 1004713:	66 90                	xchg   %ax,%ax
 1004715:	66 90                	xchg   %ax,%ax
 1004717:	66 90                	xchg   %ax,%ax
 1004719:	66 90                	xchg   %ax,%ax
 100471b:	66 90                	xchg   %ax,%ax
 100471d:	66 90                	xchg   %ax,%ax
 100471f:	66 90                	xchg   %ax,%ax
 1004721:	66 90                	xchg   %ax,%ax
 1004723:	66 90                	xchg   %ax,%ax
 1004725:	66 90                	xchg   %ax,%ax
 1004727:	66 90                	xchg   %ax,%ax
 1004729:	66 90                	xchg   %ax,%ax
 100472b:	66 90                	xchg   %ax,%ax
 100472d:	66 90                	xchg   %ax,%ax
 100472f:	66 90                	xchg   %ax,%ax
 1004731:	66 90                	xchg   %ax,%ax
 1004733:	66 90                	xchg   %ax,%ax
 1004735:	66 90                	xchg   %ax,%ax
 1004737:	66 90                	xchg   %ax,%ax
 1004739:	66 90                	xchg   %ax,%ax
 100473b:	66 90                	xchg   %ax,%ax
 100473d:	66 90                	xchg   %ax,%ax
 100473f:	66 90                	xchg   %ax,%ax
 1004741:	66 90                	xchg   %ax,%ax
 1004743:	66 90                	xchg   %ax,%ax
 1004745:	66 90                	xchg   %ax,%ax
 1004747:	66 90                	xchg   %ax,%ax
 1004749:	66 90                	xchg   %ax,%ax
 100474b:	66 90                	xchg   %ax,%ax
 100474d:	66 90                	xchg   %ax,%ax
 100474f:	66 90                	xchg   %ax,%ax
 1004751:	66 90                	xchg   %ax,%ax
 1004753:	66 90                	xchg   %ax,%ax
 1004755:	66 90                	xchg   %ax,%ax
 1004757:	66 90                	xchg   %ax,%ax
 1004759:	66 90                	xchg   %ax,%ax
 100475b:	66 90                	xchg   %ax,%ax
 100475d:	66 90                	xchg   %ax,%ax
 100475f:	66 90                	xchg   %ax,%ax
 1004761:	66 90                	xchg   %ax,%ax
 1004763:	66 90                	xchg   %ax,%ax
 1004765:	66 90                	xchg   %ax,%ax
 1004767:	66 90                	xchg   %ax,%ax
 1004769:	66 90                	xchg   %ax,%ax
 100476b:	66 90                	xchg   %ax,%ax
 100476d:	66 90                	xchg   %ax,%ax
 100476f:	66 90                	xchg   %ax,%ax
 1004771:	66 90                	xchg   %ax,%ax
 1004773:	66 90                	xchg   %ax,%ax
 1004775:	66 90                	xchg   %ax,%ax
 1004777:	66 90                	xchg   %ax,%ax
 1004779:	66 90                	xchg   %ax,%ax
 100477b:	66 90                	xchg   %ax,%ax
 100477d:	66 90                	xchg   %ax,%ax
 100477f:	66 90                	xchg   %ax,%ax
 1004781:	66 90                	xchg   %ax,%ax
 1004783:	66 90                	xchg   %ax,%ax
 1004785:	66 90                	xchg   %ax,%ax
 1004787:	66 90                	xchg   %ax,%ax
 1004789:	66 90                	xchg   %ax,%ax
 100478b:	66 90                	xchg   %ax,%ax
 100478d:	66 90                	xchg   %ax,%ax
 100478f:	66 90                	xchg   %ax,%ax
 1004791:	66 90                	xchg   %ax,%ax
 1004793:	66 90                	xchg   %ax,%ax
 1004795:	66 90                	xchg   %ax,%ax
 1004797:	66 90                	xchg   %ax,%ax
 1004799:	66 90                	xchg   %ax,%ax
 100479b:	66 90                	xchg   %ax,%ax
 100479d:	66 90                	xchg   %ax,%ax
 100479f:	66 90                	xchg   %ax,%ax
 10047a1:	66 90                	xchg   %ax,%ax
 10047a3:	66 90                	xchg   %ax,%ax
 10047a5:	66 90                	xchg   %ax,%ax
 10047a7:	66 90                	xchg   %ax,%ax
 10047a9:	66 90                	xchg   %ax,%ax
 10047ab:	66 90                	xchg   %ax,%ax
 10047ad:	66 90                	xchg   %ax,%ax
 10047af:	66 90                	xchg   %ax,%ax
 10047b1:	66 90                	xchg   %ax,%ax
 10047b3:	66 90                	xchg   %ax,%ax
 10047b5:	66 90                	xchg   %ax,%ax
 10047b7:	66 90                	xchg   %ax,%ax
 10047b9:	66 90                	xchg   %ax,%ax
 10047bb:	66 90                	xchg   %ax,%ax
 10047bd:	66 90                	xchg   %ax,%ax
 10047bf:	66 90                	xchg   %ax,%ax
 10047c1:	66 90                	xchg   %ax,%ax
 10047c3:	66 90                	xchg   %ax,%ax
 10047c5:	66 90                	xchg   %ax,%ax
 10047c7:	66 90                	xchg   %ax,%ax
 10047c9:	66 90                	xchg   %ax,%ax
 10047cb:	66 90                	xchg   %ax,%ax
 10047cd:	66 90                	xchg   %ax,%ax
 10047cf:	66 90                	xchg   %ax,%ax
 10047d1:	66 90                	xchg   %ax,%ax
 10047d3:	66 90                	xchg   %ax,%ax
 10047d5:	66 90                	xchg   %ax,%ax
 10047d7:	66 90                	xchg   %ax,%ax
 10047d9:	66 90                	xchg   %ax,%ax
 10047db:	66 90                	xchg   %ax,%ax
 10047dd:	66 90                	xchg   %ax,%ax
 10047df:	66 90                	xchg   %ax,%ax
 10047e1:	66 90                	xchg   %ax,%ax
 10047e3:	66 90                	xchg   %ax,%ax
 10047e5:	66 90                	xchg   %ax,%ax
 10047e7:	66 90                	xchg   %ax,%ax
 10047e9:	66 90                	xchg   %ax,%ax
 10047eb:	66 90                	xchg   %ax,%ax
 10047ed:	66 90                	xchg   %ax,%ax
 10047ef:	66 90                	xchg   %ax,%ax
 10047f1:	66 90                	xchg   %ax,%ax
 10047f3:	66 90                	xchg   %ax,%ax
 10047f5:	66 90                	xchg   %ax,%ax
 10047f7:	66 90                	xchg   %ax,%ax
 10047f9:	66 90                	xchg   %ax,%ax
 10047fb:	66 90                	xchg   %ax,%ax
 10047fd:	66 90                	xchg   %ax,%ax
 10047ff:	66 90                	xchg   %ax,%ax
 1004801:	66 90                	xchg   %ax,%ax
 1004803:	66 90                	xchg   %ax,%ax
 1004805:	66 90                	xchg   %ax,%ax
 1004807:	66 90                	xchg   %ax,%ax
 1004809:	66 90                	xchg   %ax,%ax
 100480b:	66 90                	xchg   %ax,%ax
 100480d:	66 90                	xchg   %ax,%ax
 100480f:	66 90                	xchg   %ax,%ax
 1004811:	66 90                	xchg   %ax,%ax
 1004813:	66 90                	xchg   %ax,%ax
 1004815:	66 90                	xchg   %ax,%ax
 1004817:	66 90                	xchg   %ax,%ax
 1004819:	66 90                	xchg   %ax,%ax
 100481b:	66 90                	xchg   %ax,%ax
 100481d:	66 90                	xchg   %ax,%ax
 100481f:	66 90                	xchg   %ax,%ax
 1004821:	66 90                	xchg   %ax,%ax
 1004823:	66 90                	xchg   %ax,%ax
 1004825:	66 90                	xchg   %ax,%ax
 1004827:	66 90                	xchg   %ax,%ax
 1004829:	66 90                	xchg   %ax,%ax
 100482b:	66 90                	xchg   %ax,%ax
 100482d:	66 90                	xchg   %ax,%ax
 100482f:	66 90                	xchg   %ax,%ax
 1004831:	66 90                	xchg   %ax,%ax
 1004833:	66 90                	xchg   %ax,%ax
 1004835:	66 90                	xchg   %ax,%ax
 1004837:	66 90                	xchg   %ax,%ax
 1004839:	66 90                	xchg   %ax,%ax
 100483b:	66 90                	xchg   %ax,%ax
 100483d:	66 90                	xchg   %ax,%ax
 100483f:	66 90                	xchg   %ax,%ax
 1004841:	66 90                	xchg   %ax,%ax
 1004843:	66 90                	xchg   %ax,%ax
 1004845:	66 90                	xchg   %ax,%ax
 1004847:	66 90                	xchg   %ax,%ax
 1004849:	66 90                	xchg   %ax,%ax
 100484b:	66 90                	xchg   %ax,%ax
 100484d:	66 90                	xchg   %ax,%ax
 100484f:	66 90                	xchg   %ax,%ax
 1004851:	66 90                	xchg   %ax,%ax
 1004853:	66 90                	xchg   %ax,%ax
 1004855:	66 90                	xchg   %ax,%ax
 1004857:	66 90                	xchg   %ax,%ax
 1004859:	66 90                	xchg   %ax,%ax
 100485b:	66 90                	xchg   %ax,%ax
 100485d:	66 90                	xchg   %ax,%ax
 100485f:	66 90                	xchg   %ax,%ax
 1004861:	66 90                	xchg   %ax,%ax
 1004863:	66 90                	xchg   %ax,%ax
 1004865:	66 90                	xchg   %ax,%ax
 1004867:	66 90                	xchg   %ax,%ax
 1004869:	66 90                	xchg   %ax,%ax
 100486b:	66 90                	xchg   %ax,%ax
 100486d:	66 90                	xchg   %ax,%ax
 100486f:	66 90                	xchg   %ax,%ax
 1004871:	66 90                	xchg   %ax,%ax
 1004873:	66 90                	xchg   %ax,%ax
 1004875:	66 90                	xchg   %ax,%ax
 1004877:	66 90                	xchg   %ax,%ax
 1004879:	66 90                	xchg   %ax,%ax
 100487b:	66 90                	xchg   %ax,%ax
 100487d:	66 90                	xchg   %ax,%ax
 100487f:	66 90                	xchg   %ax,%ax
 1004881:	66 90                	xchg   %ax,%ax
 1004883:	66 90                	xchg   %ax,%ax
 1004885:	66 90                	xchg   %ax,%ax
 1004887:	66 90                	xchg   %ax,%ax
 1004889:	66 90                	xchg   %ax,%ax
 100488b:	66 90                	xchg   %ax,%ax
 100488d:	66 90                	xchg   %ax,%ax
 100488f:	66 90                	xchg   %ax,%ax
 1004891:	66 90                	xchg   %ax,%ax
 1004893:	66 90                	xchg   %ax,%ax
 1004895:	66 90                	xchg   %ax,%ax
 1004897:	66 90                	xchg   %ax,%ax
 1004899:	66 90                	xchg   %ax,%ax
 100489b:	66 90                	xchg   %ax,%ax
 100489d:	66 90                	xchg   %ax,%ax
 100489f:	66 90                	xchg   %ax,%ax
 10048a1:	66 90                	xchg   %ax,%ax
 10048a3:	66 90                	xchg   %ax,%ax
 10048a5:	66 90                	xchg   %ax,%ax
 10048a7:	66 90                	xchg   %ax,%ax
 10048a9:	66 90                	xchg   %ax,%ax
 10048ab:	66 90                	xchg   %ax,%ax
 10048ad:	66 90                	xchg   %ax,%ax
 10048af:	66 90                	xchg   %ax,%ax
 10048b1:	66 90                	xchg   %ax,%ax
 10048b3:	66 90                	xchg   %ax,%ax
 10048b5:	66 90                	xchg   %ax,%ax
 10048b7:	66 90                	xchg   %ax,%ax
 10048b9:	66 90                	xchg   %ax,%ax
 10048bb:	66 90                	xchg   %ax,%ax
 10048bd:	66 90                	xchg   %ax,%ax
 10048bf:	66 90                	xchg   %ax,%ax
 10048c1:	66 90                	xchg   %ax,%ax
 10048c3:	66 90                	xchg   %ax,%ax
 10048c5:	66 90                	xchg   %ax,%ax
 10048c7:	66 90                	xchg   %ax,%ax
 10048c9:	66 90                	xchg   %ax,%ax
 10048cb:	66 90                	xchg   %ax,%ax
 10048cd:	66 90                	xchg   %ax,%ax
 10048cf:	66 90                	xchg   %ax,%ax
 10048d1:	66 90                	xchg   %ax,%ax
 10048d3:	66 90                	xchg   %ax,%ax
 10048d5:	66 90                	xchg   %ax,%ax
 10048d7:	66 90                	xchg   %ax,%ax
 10048d9:	66 90                	xchg   %ax,%ax
 10048db:	66 90                	xchg   %ax,%ax
 10048dd:	66 90                	xchg   %ax,%ax
 10048df:	66 90                	xchg   %ax,%ax
 10048e1:	66 90                	xchg   %ax,%ax
 10048e3:	66 90                	xchg   %ax,%ax
 10048e5:	66 90                	xchg   %ax,%ax
 10048e7:	66 90                	xchg   %ax,%ax
 10048e9:	66 90                	xchg   %ax,%ax
 10048eb:	66 90                	xchg   %ax,%ax
 10048ed:	66 90                	xchg   %ax,%ax
 10048ef:	66 90                	xchg   %ax,%ax
 10048f1:	66 90                	xchg   %ax,%ax
 10048f3:	66 90                	xchg   %ax,%ax
 10048f5:	66 90                	xchg   %ax,%ax
 10048f7:	66 90                	xchg   %ax,%ax
 10048f9:	66 90                	xchg   %ax,%ax
 10048fb:	66 90                	xchg   %ax,%ax
 10048fd:	66 90                	xchg   %ax,%ax
 10048ff:	66 90                	xchg   %ax,%ax
 1004901:	66 90                	xchg   %ax,%ax
 1004903:	66 90                	xchg   %ax,%ax
 1004905:	66 90                	xchg   %ax,%ax
 1004907:	66 90                	xchg   %ax,%ax
 1004909:	66 90                	xchg   %ax,%ax
 100490b:	66 90                	xchg   %ax,%ax
 100490d:	66 90                	xchg   %ax,%ax
 100490f:	66 90                	xchg   %ax,%ax
 1004911:	66 90                	xchg   %ax,%ax
 1004913:	66 90                	xchg   %ax,%ax
 1004915:	66 90                	xchg   %ax,%ax
 1004917:	66 90                	xchg   %ax,%ax
 1004919:	66 90                	xchg   %ax,%ax
 100491b:	66 90                	xchg   %ax,%ax
 100491d:	66 90                	xchg   %ax,%ax
 100491f:	66 90                	xchg   %ax,%ax
 1004921:	66 90                	xchg   %ax,%ax
 1004923:	66 90                	xchg   %ax,%ax
 1004925:	66 90                	xchg   %ax,%ax
 1004927:	66 90                	xchg   %ax,%ax
 1004929:	66 90                	xchg   %ax,%ax
 100492b:	66 90                	xchg   %ax,%ax
 100492d:	66 90                	xchg   %ax,%ax
 100492f:	66 90                	xchg   %ax,%ax
 1004931:	66 90                	xchg   %ax,%ax
 1004933:	66 90                	xchg   %ax,%ax
 1004935:	66 90                	xchg   %ax,%ax
 1004937:	66 90                	xchg   %ax,%ax
 1004939:	66 90                	xchg   %ax,%ax
 100493b:	66 90                	xchg   %ax,%ax
 100493d:	66 90                	xchg   %ax,%ax
 100493f:	66 90                	xchg   %ax,%ax
 1004941:	66 90                	xchg   %ax,%ax
 1004943:	66 90                	xchg   %ax,%ax
 1004945:	66 90                	xchg   %ax,%ax
 1004947:	66 90                	xchg   %ax,%ax
 1004949:	66 90                	xchg   %ax,%ax
 100494b:	66 90                	xchg   %ax,%ax
 100494d:	66 90                	xchg   %ax,%ax
 100494f:	66 90                	xchg   %ax,%ax
 1004951:	66 90                	xchg   %ax,%ax
 1004953:	66 90                	xchg   %ax,%ax
 1004955:	66 90                	xchg   %ax,%ax
 1004957:	66 90                	xchg   %ax,%ax
 1004959:	66 90                	xchg   %ax,%ax
 100495b:	66 90                	xchg   %ax,%ax
 100495d:	66 90                	xchg   %ax,%ax
 100495f:	66 90                	xchg   %ax,%ax
 1004961:	66 90                	xchg   %ax,%ax
 1004963:	66 90                	xchg   %ax,%ax
 1004965:	66 90                	xchg   %ax,%ax
 1004967:	66 90                	xchg   %ax,%ax
 1004969:	66 90                	xchg   %ax,%ax
 100496b:	66 90                	xchg   %ax,%ax
 100496d:	66 90                	xchg   %ax,%ax
 100496f:	66 90                	xchg   %ax,%ax
 1004971:	66 90                	xchg   %ax,%ax
 1004973:	66 90                	xchg   %ax,%ax
 1004975:	66 90                	xchg   %ax,%ax
 1004977:	66 90                	xchg   %ax,%ax
 1004979:	66 90                	xchg   %ax,%ax
 100497b:	66 90                	xchg   %ax,%ax
 100497d:	66 90                	xchg   %ax,%ax
 100497f:	66 90                	xchg   %ax,%ax
 1004981:	66 90                	xchg   %ax,%ax
 1004983:	66 90                	xchg   %ax,%ax
 1004985:	66 90                	xchg   %ax,%ax
 1004987:	66 90                	xchg   %ax,%ax
 1004989:	66 90                	xchg   %ax,%ax
 100498b:	66 90                	xchg   %ax,%ax
 100498d:	66 90                	xchg   %ax,%ax
 100498f:	66 90                	xchg   %ax,%ax
 1004991:	66 90                	xchg   %ax,%ax
 1004993:	66 90                	xchg   %ax,%ax
 1004995:	66 90                	xchg   %ax,%ax
 1004997:	66 90                	xchg   %ax,%ax
 1004999:	66 90                	xchg   %ax,%ax
 100499b:	66 90                	xchg   %ax,%ax
 100499d:	66 90                	xchg   %ax,%ax
 100499f:	66 90                	xchg   %ax,%ax
 10049a1:	66 90                	xchg   %ax,%ax
 10049a3:	66 90                	xchg   %ax,%ax
 10049a5:	66 90                	xchg   %ax,%ax
 10049a7:	66 90                	xchg   %ax,%ax
 10049a9:	66 90                	xchg   %ax,%ax
 10049ab:	66 90                	xchg   %ax,%ax
 10049ad:	66 90                	xchg   %ax,%ax
 10049af:	66 90                	xchg   %ax,%ax
 10049b1:	66 90                	xchg   %ax,%ax
 10049b3:	66 90                	xchg   %ax,%ax
 10049b5:	66 90                	xchg   %ax,%ax
 10049b7:	66 90                	xchg   %ax,%ax
 10049b9:	66 90                	xchg   %ax,%ax
 10049bb:	66 90                	xchg   %ax,%ax
 10049bd:	66 90                	xchg   %ax,%ax
 10049bf:	66 90                	xchg   %ax,%ax
 10049c1:	66 90                	xchg   %ax,%ax
 10049c3:	66 90                	xchg   %ax,%ax
 10049c5:	66 90                	xchg   %ax,%ax
 10049c7:	66 90                	xchg   %ax,%ax
 10049c9:	66 90                	xchg   %ax,%ax
 10049cb:	66 90                	xchg   %ax,%ax
 10049cd:	66 90                	xchg   %ax,%ax
 10049cf:	66 90                	xchg   %ax,%ax
 10049d1:	66 90                	xchg   %ax,%ax
 10049d3:	66 90                	xchg   %ax,%ax
 10049d5:	66 90                	xchg   %ax,%ax
 10049d7:	66 90                	xchg   %ax,%ax
 10049d9:	66 90                	xchg   %ax,%ax
 10049db:	66 90                	xchg   %ax,%ax
 10049dd:	66 90                	xchg   %ax,%ax
 10049df:	66 90                	xchg   %ax,%ax
 10049e1:	66 90                	xchg   %ax,%ax
 10049e3:	66 90                	xchg   %ax,%ax
 10049e5:	66 90                	xchg   %ax,%ax
 10049e7:	66 90                	xchg   %ax,%ax
 10049e9:	66 90                	xchg   %ax,%ax
 10049eb:	66 90                	xchg   %ax,%ax
 10049ed:	66 90                	xchg   %ax,%ax
 10049ef:	66 90                	xchg   %ax,%ax
 10049f1:	66 90                	xchg   %ax,%ax
 10049f3:	66 90                	xchg   %ax,%ax
 10049f5:	66 90                	xchg   %ax,%ax
 10049f7:	66 90                	xchg   %ax,%ax
 10049f9:	66 90                	xchg   %ax,%ax
 10049fb:	66 90                	xchg   %ax,%ax
 10049fd:	66 90                	xchg   %ax,%ax
 10049ff:	66 90                	xchg   %ax,%ax
 1004a01:	66 90                	xchg   %ax,%ax
 1004a03:	66 90                	xchg   %ax,%ax
 1004a05:	66 90                	xchg   %ax,%ax
 1004a07:	66 90                	xchg   %ax,%ax
 1004a09:	66 90                	xchg   %ax,%ax
 1004a0b:	66 90                	xchg   %ax,%ax
 1004a0d:	66 90                	xchg   %ax,%ax
 1004a0f:	66 90                	xchg   %ax,%ax
 1004a11:	66 90                	xchg   %ax,%ax
 1004a13:	66 90                	xchg   %ax,%ax
 1004a15:	66 90                	xchg   %ax,%ax
 1004a17:	66 90                	xchg   %ax,%ax
 1004a19:	66 90                	xchg   %ax,%ax
 1004a1b:	66 90                	xchg   %ax,%ax
 1004a1d:	66 90                	xchg   %ax,%ax
 1004a1f:	66 90                	xchg   %ax,%ax
 1004a21:	66 90                	xchg   %ax,%ax
 1004a23:	66 90                	xchg   %ax,%ax
 1004a25:	66 90                	xchg   %ax,%ax
 1004a27:	66 90                	xchg   %ax,%ax
 1004a29:	66 90                	xchg   %ax,%ax
 1004a2b:	66 90                	xchg   %ax,%ax
 1004a2d:	66 90                	xchg   %ax,%ax
 1004a2f:	66 90                	xchg   %ax,%ax
 1004a31:	66 90                	xchg   %ax,%ax
 1004a33:	66 90                	xchg   %ax,%ax
 1004a35:	66 90                	xchg   %ax,%ax
 1004a37:	66 90                	xchg   %ax,%ax
 1004a39:	66 90                	xchg   %ax,%ax
 1004a3b:	66 90                	xchg   %ax,%ax
 1004a3d:	66 90                	xchg   %ax,%ax
 1004a3f:	66 90                	xchg   %ax,%ax
 1004a41:	66 90                	xchg   %ax,%ax
 1004a43:	66 90                	xchg   %ax,%ax
 1004a45:	66 90                	xchg   %ax,%ax
 1004a47:	66 90                	xchg   %ax,%ax
 1004a49:	66 90                	xchg   %ax,%ax
 1004a4b:	66 90                	xchg   %ax,%ax
 1004a4d:	66 90                	xchg   %ax,%ax
 1004a4f:	66 90                	xchg   %ax,%ax
 1004a51:	66 90                	xchg   %ax,%ax
 1004a53:	66 90                	xchg   %ax,%ax
 1004a55:	66 90                	xchg   %ax,%ax
 1004a57:	66 90                	xchg   %ax,%ax
 1004a59:	66 90                	xchg   %ax,%ax
 1004a5b:	66 90                	xchg   %ax,%ax
 1004a5d:	66 90                	xchg   %ax,%ax
 1004a5f:	66 90                	xchg   %ax,%ax
 1004a61:	66 90                	xchg   %ax,%ax
 1004a63:	66 90                	xchg   %ax,%ax
 1004a65:	66 90                	xchg   %ax,%ax
 1004a67:	66 90                	xchg   %ax,%ax
 1004a69:	66 90                	xchg   %ax,%ax
 1004a6b:	66 90                	xchg   %ax,%ax
 1004a6d:	66 90                	xchg   %ax,%ax
 1004a6f:	66 90                	xchg   %ax,%ax
 1004a71:	66 90                	xchg   %ax,%ax
 1004a73:	66 90                	xchg   %ax,%ax
 1004a75:	66 90                	xchg   %ax,%ax
 1004a77:	66 90                	xchg   %ax,%ax
 1004a79:	66 90                	xchg   %ax,%ax
 1004a7b:	66 90                	xchg   %ax,%ax
 1004a7d:	66 90                	xchg   %ax,%ax
 1004a7f:	66 90                	xchg   %ax,%ax
 1004a81:	66 90                	xchg   %ax,%ax
 1004a83:	66 90                	xchg   %ax,%ax
 1004a85:	66 90                	xchg   %ax,%ax
 1004a87:	66 90                	xchg   %ax,%ax
 1004a89:	66 90                	xchg   %ax,%ax
 1004a8b:	66 90                	xchg   %ax,%ax
 1004a8d:	66 90                	xchg   %ax,%ax
 1004a8f:	66 90                	xchg   %ax,%ax
 1004a91:	66 90                	xchg   %ax,%ax
 1004a93:	66 90                	xchg   %ax,%ax
 1004a95:	66 90                	xchg   %ax,%ax
 1004a97:	66 90                	xchg   %ax,%ax
 1004a99:	66 90                	xchg   %ax,%ax
 1004a9b:	66 90                	xchg   %ax,%ax
 1004a9d:	66 90                	xchg   %ax,%ax
 1004a9f:	66 90                	xchg   %ax,%ax
 1004aa1:	66 90                	xchg   %ax,%ax
 1004aa3:	66 90                	xchg   %ax,%ax
 1004aa5:	66 90                	xchg   %ax,%ax
 1004aa7:	66 90                	xchg   %ax,%ax
 1004aa9:	66 90                	xchg   %ax,%ax
 1004aab:	66 90                	xchg   %ax,%ax
 1004aad:	66 90                	xchg   %ax,%ax
 1004aaf:	66 90                	xchg   %ax,%ax
 1004ab1:	66 90                	xchg   %ax,%ax
 1004ab3:	66 90                	xchg   %ax,%ax
 1004ab5:	66 90                	xchg   %ax,%ax
 1004ab7:	66 90                	xchg   %ax,%ax
 1004ab9:	66 90                	xchg   %ax,%ax
 1004abb:	66 90                	xchg   %ax,%ax
 1004abd:	66 90                	xchg   %ax,%ax
 1004abf:	66 90                	xchg   %ax,%ax
 1004ac1:	66 90                	xchg   %ax,%ax
 1004ac3:	66 90                	xchg   %ax,%ax
 1004ac5:	66 90                	xchg   %ax,%ax
 1004ac7:	66 90                	xchg   %ax,%ax
 1004ac9:	66 90                	xchg   %ax,%ax
 1004acb:	66 90                	xchg   %ax,%ax
 1004acd:	66 90                	xchg   %ax,%ax
 1004acf:	66 90                	xchg   %ax,%ax
 1004ad1:	66 90                	xchg   %ax,%ax
 1004ad3:	66 90                	xchg   %ax,%ax
 1004ad5:	66 90                	xchg   %ax,%ax
 1004ad7:	66 90                	xchg   %ax,%ax
 1004ad9:	66 90                	xchg   %ax,%ax
 1004adb:	66 90                	xchg   %ax,%ax
 1004add:	66 90                	xchg   %ax,%ax
 1004adf:	66 90                	xchg   %ax,%ax
 1004ae1:	66 90                	xchg   %ax,%ax
 1004ae3:	66 90                	xchg   %ax,%ax
 1004ae5:	66 90                	xchg   %ax,%ax
 1004ae7:	66 90                	xchg   %ax,%ax
 1004ae9:	66 90                	xchg   %ax,%ax
 1004aeb:	66 90                	xchg   %ax,%ax
 1004aed:	66 90                	xchg   %ax,%ax
 1004aef:	66 90                	xchg   %ax,%ax
 1004af1:	66 90                	xchg   %ax,%ax
 1004af3:	66 90                	xchg   %ax,%ax
 1004af5:	66 90                	xchg   %ax,%ax
 1004af7:	66 90                	xchg   %ax,%ax
 1004af9:	66 90                	xchg   %ax,%ax
 1004afb:	66 90                	xchg   %ax,%ax
 1004afd:	66 90                	xchg   %ax,%ax
 1004aff:	66 90                	xchg   %ax,%ax
 1004b01:	66 90                	xchg   %ax,%ax
 1004b03:	66 90                	xchg   %ax,%ax
 1004b05:	66 90                	xchg   %ax,%ax
 1004b07:	66 90                	xchg   %ax,%ax
 1004b09:	66 90                	xchg   %ax,%ax
 1004b0b:	66 90                	xchg   %ax,%ax
 1004b0d:	66 90                	xchg   %ax,%ax
 1004b0f:	66 90                	xchg   %ax,%ax
 1004b11:	66 90                	xchg   %ax,%ax
 1004b13:	66 90                	xchg   %ax,%ax
 1004b15:	66 90                	xchg   %ax,%ax
 1004b17:	66 90                	xchg   %ax,%ax
 1004b19:	66 90                	xchg   %ax,%ax
 1004b1b:	66 90                	xchg   %ax,%ax
 1004b1d:	66 90                	xchg   %ax,%ax
 1004b1f:	66 90                	xchg   %ax,%ax
 1004b21:	66 90                	xchg   %ax,%ax
 1004b23:	66 90                	xchg   %ax,%ax
 1004b25:	66 90                	xchg   %ax,%ax
 1004b27:	66 90                	xchg   %ax,%ax
 1004b29:	66 90                	xchg   %ax,%ax
 1004b2b:	66 90                	xchg   %ax,%ax
 1004b2d:	66 90                	xchg   %ax,%ax
 1004b2f:	66 90                	xchg   %ax,%ax
 1004b31:	66 90                	xchg   %ax,%ax
 1004b33:	66 90                	xchg   %ax,%ax
 1004b35:	66 90                	xchg   %ax,%ax
 1004b37:	66 90                	xchg   %ax,%ax
 1004b39:	66 90                	xchg   %ax,%ax
 1004b3b:	66 90                	xchg   %ax,%ax
 1004b3d:	66 90                	xchg   %ax,%ax
 1004b3f:	66 90                	xchg   %ax,%ax
 1004b41:	66 90                	xchg   %ax,%ax
 1004b43:	66 90                	xchg   %ax,%ax
 1004b45:	66 90                	xchg   %ax,%ax
 1004b47:	66 90                	xchg   %ax,%ax
 1004b49:	66 90                	xchg   %ax,%ax
 1004b4b:	66 90                	xchg   %ax,%ax
 1004b4d:	66 90                	xchg   %ax,%ax
 1004b4f:	66 90                	xchg   %ax,%ax
 1004b51:	66 90                	xchg   %ax,%ax
 1004b53:	66 90                	xchg   %ax,%ax
 1004b55:	66 90                	xchg   %ax,%ax
 1004b57:	66 90                	xchg   %ax,%ax
 1004b59:	66 90                	xchg   %ax,%ax
 1004b5b:	66 90                	xchg   %ax,%ax
 1004b5d:	66 90                	xchg   %ax,%ax
 1004b5f:	66 90                	xchg   %ax,%ax
 1004b61:	66 90                	xchg   %ax,%ax
 1004b63:	66 90                	xchg   %ax,%ax
 1004b65:	66 90                	xchg   %ax,%ax
 1004b67:	66 90                	xchg   %ax,%ax
 1004b69:	66 90                	xchg   %ax,%ax
 1004b6b:	66 90                	xchg   %ax,%ax
 1004b6d:	66 90                	xchg   %ax,%ax
 1004b6f:	66 90                	xchg   %ax,%ax
 1004b71:	66 90                	xchg   %ax,%ax
 1004b73:	66 90                	xchg   %ax,%ax
 1004b75:	66 90                	xchg   %ax,%ax
 1004b77:	66 90                	xchg   %ax,%ax
 1004b79:	66 90                	xchg   %ax,%ax
 1004b7b:	66 90                	xchg   %ax,%ax
 1004b7d:	66 90                	xchg   %ax,%ax
 1004b7f:	66 90                	xchg   %ax,%ax
 1004b81:	66 90                	xchg   %ax,%ax
 1004b83:	66 90                	xchg   %ax,%ax
 1004b85:	66 90                	xchg   %ax,%ax
 1004b87:	66 90                	xchg   %ax,%ax
 1004b89:	66 90                	xchg   %ax,%ax
 1004b8b:	66 90                	xchg   %ax,%ax
 1004b8d:	66 90                	xchg   %ax,%ax
 1004b8f:	66 90                	xchg   %ax,%ax
 1004b91:	66 90                	xchg   %ax,%ax
 1004b93:	66 90                	xchg   %ax,%ax
 1004b95:	66 90                	xchg   %ax,%ax
 1004b97:	66 90                	xchg   %ax,%ax
 1004b99:	66 90                	xchg   %ax,%ax
 1004b9b:	66 90                	xchg   %ax,%ax
 1004b9d:	66 90                	xchg   %ax,%ax
 1004b9f:	66 90                	xchg   %ax,%ax
 1004ba1:	66 90                	xchg   %ax,%ax
 1004ba3:	66 90                	xchg   %ax,%ax
 1004ba5:	66 90                	xchg   %ax,%ax
 1004ba7:	66 90                	xchg   %ax,%ax
 1004ba9:	66 90                	xchg   %ax,%ax
 1004bab:	66 90                	xchg   %ax,%ax
 1004bad:	66 90                	xchg   %ax,%ax
 1004baf:	66 90                	xchg   %ax,%ax
 1004bb1:	66 90                	xchg   %ax,%ax
 1004bb3:	66 90                	xchg   %ax,%ax
 1004bb5:	66 90                	xchg   %ax,%ax
 1004bb7:	66 90                	xchg   %ax,%ax
 1004bb9:	66 90                	xchg   %ax,%ax
 1004bbb:	66 90                	xchg   %ax,%ax
 1004bbd:	66 90                	xchg   %ax,%ax
 1004bbf:	66 90                	xchg   %ax,%ax
 1004bc1:	66 90                	xchg   %ax,%ax
 1004bc3:	66 90                	xchg   %ax,%ax
 1004bc5:	66 90                	xchg   %ax,%ax
 1004bc7:	66 90                	xchg   %ax,%ax
 1004bc9:	66 90                	xchg   %ax,%ax
 1004bcb:	66 90                	xchg   %ax,%ax
 1004bcd:	66 90                	xchg   %ax,%ax
 1004bcf:	66 90                	xchg   %ax,%ax
 1004bd1:	66 90                	xchg   %ax,%ax
 1004bd3:	66 90                	xchg   %ax,%ax
 1004bd5:	66 90                	xchg   %ax,%ax
 1004bd7:	66 90                	xchg   %ax,%ax
 1004bd9:	66 90                	xchg   %ax,%ax
 1004bdb:	66 90                	xchg   %ax,%ax
 1004bdd:	66 90                	xchg   %ax,%ax
 1004bdf:	66 90                	xchg   %ax,%ax
 1004be1:	66 90                	xchg   %ax,%ax
 1004be3:	66 90                	xchg   %ax,%ax
 1004be5:	66 90                	xchg   %ax,%ax
 1004be7:	66 90                	xchg   %ax,%ax
 1004be9:	66 90                	xchg   %ax,%ax
 1004beb:	66 90                	xchg   %ax,%ax
 1004bed:	66 90                	xchg   %ax,%ax
 1004bef:	66 90                	xchg   %ax,%ax
 1004bf1:	66 90                	xchg   %ax,%ax
 1004bf3:	66 90                	xchg   %ax,%ax
 1004bf5:	66 90                	xchg   %ax,%ax
 1004bf7:	66 90                	xchg   %ax,%ax
 1004bf9:	66 90                	xchg   %ax,%ax
 1004bfb:	66 90                	xchg   %ax,%ax
 1004bfd:	66 90                	xchg   %ax,%ax
 1004bff:	66 90                	xchg   %ax,%ax
 1004c01:	66 90                	xchg   %ax,%ax
 1004c03:	66 90                	xchg   %ax,%ax
 1004c05:	66 90                	xchg   %ax,%ax
 1004c07:	66 90                	xchg   %ax,%ax
 1004c09:	66 90                	xchg   %ax,%ax
 1004c0b:	66 90                	xchg   %ax,%ax
 1004c0d:	66 90                	xchg   %ax,%ax
 1004c0f:	66 90                	xchg   %ax,%ax
 1004c11:	66 90                	xchg   %ax,%ax
 1004c13:	66 90                	xchg   %ax,%ax
 1004c15:	66 90                	xchg   %ax,%ax
 1004c17:	66 90                	xchg   %ax,%ax
 1004c19:	66 90                	xchg   %ax,%ax
 1004c1b:	66 90                	xchg   %ax,%ax
 1004c1d:	66 90                	xchg   %ax,%ax
 1004c1f:	66 90                	xchg   %ax,%ax
 1004c21:	66 90                	xchg   %ax,%ax
 1004c23:	66 90                	xchg   %ax,%ax
 1004c25:	66 90                	xchg   %ax,%ax
 1004c27:	66 90                	xchg   %ax,%ax
 1004c29:	66 90                	xchg   %ax,%ax
 1004c2b:	66 90                	xchg   %ax,%ax
 1004c2d:	66 90                	xchg   %ax,%ax
 1004c2f:	66 90                	xchg   %ax,%ax
 1004c31:	66 90                	xchg   %ax,%ax
 1004c33:	66 90                	xchg   %ax,%ax
 1004c35:	66 90                	xchg   %ax,%ax
 1004c37:	66 90                	xchg   %ax,%ax
 1004c39:	66 90                	xchg   %ax,%ax
 1004c3b:	66 90                	xchg   %ax,%ax
 1004c3d:	66 90                	xchg   %ax,%ax
 1004c3f:	66 90                	xchg   %ax,%ax
 1004c41:	66 90                	xchg   %ax,%ax
 1004c43:	66 90                	xchg   %ax,%ax
 1004c45:	66 90                	xchg   %ax,%ax
 1004c47:	66 90                	xchg   %ax,%ax
 1004c49:	66 90                	xchg   %ax,%ax
 1004c4b:	66 90                	xchg   %ax,%ax
 1004c4d:	66 90                	xchg   %ax,%ax
 1004c4f:	66 90                	xchg   %ax,%ax
 1004c51:	66 90                	xchg   %ax,%ax
 1004c53:	66 90                	xchg   %ax,%ax
 1004c55:	66 90                	xchg   %ax,%ax
 1004c57:	66 90                	xchg   %ax,%ax
 1004c59:	66 90                	xchg   %ax,%ax
 1004c5b:	66 90                	xchg   %ax,%ax
 1004c5d:	66 90                	xchg   %ax,%ax
 1004c5f:	66 90                	xchg   %ax,%ax
 1004c61:	66 90                	xchg   %ax,%ax
 1004c63:	66 90                	xchg   %ax,%ax
 1004c65:	66 90                	xchg   %ax,%ax
 1004c67:	66 90                	xchg   %ax,%ax
 1004c69:	66 90                	xchg   %ax,%ax
 1004c6b:	66 90                	xchg   %ax,%ax
 1004c6d:	66 90                	xchg   %ax,%ax
 1004c6f:	66 90                	xchg   %ax,%ax
 1004c71:	66 90                	xchg   %ax,%ax
 1004c73:	66 90                	xchg   %ax,%ax
 1004c75:	66 90                	xchg   %ax,%ax
 1004c77:	66 90                	xchg   %ax,%ax
 1004c79:	66 90                	xchg   %ax,%ax
 1004c7b:	66 90                	xchg   %ax,%ax
 1004c7d:	66 90                	xchg   %ax,%ax
 1004c7f:	66 90                	xchg   %ax,%ax
 1004c81:	66 90                	xchg   %ax,%ax
 1004c83:	66 90                	xchg   %ax,%ax
 1004c85:	66 90                	xchg   %ax,%ax
 1004c87:	66 90                	xchg   %ax,%ax
 1004c89:	66 90                	xchg   %ax,%ax
 1004c8b:	66 90                	xchg   %ax,%ax
 1004c8d:	66 90                	xchg   %ax,%ax
 1004c8f:	66 90                	xchg   %ax,%ax
 1004c91:	66 90                	xchg   %ax,%ax
 1004c93:	66 90                	xchg   %ax,%ax
 1004c95:	66 90                	xchg   %ax,%ax
 1004c97:	66 90                	xchg   %ax,%ax
 1004c99:	66 90                	xchg   %ax,%ax
 1004c9b:	66 90                	xchg   %ax,%ax
 1004c9d:	66 90                	xchg   %ax,%ax
 1004c9f:	66 90                	xchg   %ax,%ax
 1004ca1:	66 90                	xchg   %ax,%ax
 1004ca3:	66 90                	xchg   %ax,%ax
 1004ca5:	66 90                	xchg   %ax,%ax
 1004ca7:	66 90                	xchg   %ax,%ax
 1004ca9:	66 90                	xchg   %ax,%ax
 1004cab:	66 90                	xchg   %ax,%ax
 1004cad:	66 90                	xchg   %ax,%ax
 1004caf:	66 90                	xchg   %ax,%ax
 1004cb1:	66 90                	xchg   %ax,%ax
 1004cb3:	66 90                	xchg   %ax,%ax
 1004cb5:	66 90                	xchg   %ax,%ax
 1004cb7:	66 90                	xchg   %ax,%ax
 1004cb9:	66 90                	xchg   %ax,%ax
 1004cbb:	66 90                	xchg   %ax,%ax
 1004cbd:	66 90                	xchg   %ax,%ax
 1004cbf:	66 90                	xchg   %ax,%ax
 1004cc1:	66 90                	xchg   %ax,%ax
 1004cc3:	66 90                	xchg   %ax,%ax
 1004cc5:	66 90                	xchg   %ax,%ax
 1004cc7:	66 90                	xchg   %ax,%ax
 1004cc9:	66 90                	xchg   %ax,%ax
 1004ccb:	66 90                	xchg   %ax,%ax
 1004ccd:	66 90                	xchg   %ax,%ax
 1004ccf:	66 90                	xchg   %ax,%ax
 1004cd1:	66 90                	xchg   %ax,%ax
 1004cd3:	66 90                	xchg   %ax,%ax
 1004cd5:	66 90                	xchg   %ax,%ax
 1004cd7:	66 90                	xchg   %ax,%ax
 1004cd9:	66 90                	xchg   %ax,%ax
 1004cdb:	66 90                	xchg   %ax,%ax
 1004cdd:	66 90                	xchg   %ax,%ax
 1004cdf:	66 90                	xchg   %ax,%ax
 1004ce1:	66 90                	xchg   %ax,%ax
 1004ce3:	66 90                	xchg   %ax,%ax
 1004ce5:	66 90                	xchg   %ax,%ax
 1004ce7:	66 90                	xchg   %ax,%ax
 1004ce9:	66 90                	xchg   %ax,%ax
 1004ceb:	66 90                	xchg   %ax,%ax
 1004ced:	66 90                	xchg   %ax,%ax
 1004cef:	66 90                	xchg   %ax,%ax
 1004cf1:	66 90                	xchg   %ax,%ax
 1004cf3:	66 90                	xchg   %ax,%ax
 1004cf5:	66 90                	xchg   %ax,%ax
 1004cf7:	66 90                	xchg   %ax,%ax
 1004cf9:	66 90                	xchg   %ax,%ax
 1004cfb:	66 90                	xchg   %ax,%ax
 1004cfd:	66 90                	xchg   %ax,%ax
 1004cff:	66 90                	xchg   %ax,%ax
 1004d01:	66 90                	xchg   %ax,%ax
 1004d03:	66 90                	xchg   %ax,%ax
 1004d05:	66 90                	xchg   %ax,%ax
 1004d07:	66 90                	xchg   %ax,%ax
 1004d09:	66 90                	xchg   %ax,%ax
 1004d0b:	66 90                	xchg   %ax,%ax
 1004d0d:	66 90                	xchg   %ax,%ax
 1004d0f:	66 90                	xchg   %ax,%ax
 1004d11:	66 90                	xchg   %ax,%ax
 1004d13:	66 90                	xchg   %ax,%ax
 1004d15:	66 90                	xchg   %ax,%ax
 1004d17:	66 90                	xchg   %ax,%ax
 1004d19:	66 90                	xchg   %ax,%ax
 1004d1b:	66 90                	xchg   %ax,%ax
 1004d1d:	66 90                	xchg   %ax,%ax
 1004d1f:	66 90                	xchg   %ax,%ax
 1004d21:	66 90                	xchg   %ax,%ax
 1004d23:	66 90                	xchg   %ax,%ax
 1004d25:	66 90                	xchg   %ax,%ax
 1004d27:	66 90                	xchg   %ax,%ax
 1004d29:	66 90                	xchg   %ax,%ax
 1004d2b:	66 90                	xchg   %ax,%ax
 1004d2d:	66 90                	xchg   %ax,%ax
 1004d2f:	66 90                	xchg   %ax,%ax
 1004d31:	66 90                	xchg   %ax,%ax
 1004d33:	66 90                	xchg   %ax,%ax
 1004d35:	66 90                	xchg   %ax,%ax
 1004d37:	66 90                	xchg   %ax,%ax
 1004d39:	66 90                	xchg   %ax,%ax
 1004d3b:	66 90                	xchg   %ax,%ax
 1004d3d:	66 90                	xchg   %ax,%ax
 1004d3f:	66 90                	xchg   %ax,%ax
 1004d41:	66 90                	xchg   %ax,%ax
 1004d43:	66 90                	xchg   %ax,%ax
 1004d45:	66 90                	xchg   %ax,%ax
 1004d47:	66 90                	xchg   %ax,%ax
 1004d49:	66 90                	xchg   %ax,%ax
 1004d4b:	66 90                	xchg   %ax,%ax
 1004d4d:	66 90                	xchg   %ax,%ax
 1004d4f:	66 90                	xchg   %ax,%ax
 1004d51:	66 90                	xchg   %ax,%ax
 1004d53:	66 90                	xchg   %ax,%ax
 1004d55:	66 90                	xchg   %ax,%ax
 1004d57:	66 90                	xchg   %ax,%ax
 1004d59:	66 90                	xchg   %ax,%ax
 1004d5b:	66 90                	xchg   %ax,%ax
 1004d5d:	66 90                	xchg   %ax,%ax
 1004d5f:	66 90                	xchg   %ax,%ax
 1004d61:	66 90                	xchg   %ax,%ax
 1004d63:	66 90                	xchg   %ax,%ax
 1004d65:	66 90                	xchg   %ax,%ax
 1004d67:	66 90                	xchg   %ax,%ax
 1004d69:	66 90                	xchg   %ax,%ax
 1004d6b:	66 90                	xchg   %ax,%ax
 1004d6d:	66 90                	xchg   %ax,%ax
 1004d6f:	66 90                	xchg   %ax,%ax
 1004d71:	66 90                	xchg   %ax,%ax
 1004d73:	66 90                	xchg   %ax,%ax
 1004d75:	66 90                	xchg   %ax,%ax
 1004d77:	66 90                	xchg   %ax,%ax
 1004d79:	66 90                	xchg   %ax,%ax
 1004d7b:	66 90                	xchg   %ax,%ax
 1004d7d:	66 90                	xchg   %ax,%ax
 1004d7f:	66 90                	xchg   %ax,%ax
 1004d81:	66 90                	xchg   %ax,%ax
 1004d83:	66 90                	xchg   %ax,%ax
 1004d85:	66 90                	xchg   %ax,%ax
 1004d87:	66 90                	xchg   %ax,%ax
 1004d89:	66 90                	xchg   %ax,%ax
 1004d8b:	66 90                	xchg   %ax,%ax
 1004d8d:	66 90                	xchg   %ax,%ax
 1004d8f:	66 90                	xchg   %ax,%ax
 1004d91:	66 90                	xchg   %ax,%ax
 1004d93:	66 90                	xchg   %ax,%ax
 1004d95:	66 90                	xchg   %ax,%ax
 1004d97:	66 90                	xchg   %ax,%ax
 1004d99:	66 90                	xchg   %ax,%ax
 1004d9b:	66 90                	xchg   %ax,%ax
 1004d9d:	66 90                	xchg   %ax,%ax
 1004d9f:	66 90                	xchg   %ax,%ax
 1004da1:	66 90                	xchg   %ax,%ax
 1004da3:	66 90                	xchg   %ax,%ax
 1004da5:	66 90                	xchg   %ax,%ax
 1004da7:	66 90                	xchg   %ax,%ax
 1004da9:	66 90                	xchg   %ax,%ax
 1004dab:	66 90                	xchg   %ax,%ax
 1004dad:	66 90                	xchg   %ax,%ax
 1004daf:	66 90                	xchg   %ax,%ax
 1004db1:	66 90                	xchg   %ax,%ax
 1004db3:	66 90                	xchg   %ax,%ax
 1004db5:	66 90                	xchg   %ax,%ax
 1004db7:	66 90                	xchg   %ax,%ax
 1004db9:	66 90                	xchg   %ax,%ax
 1004dbb:	66 90                	xchg   %ax,%ax
 1004dbd:	66 90                	xchg   %ax,%ax
 1004dbf:	66 90                	xchg   %ax,%ax
 1004dc1:	66 90                	xchg   %ax,%ax
 1004dc3:	66 90                	xchg   %ax,%ax
 1004dc5:	66 90                	xchg   %ax,%ax
 1004dc7:	66 90                	xchg   %ax,%ax
 1004dc9:	66 90                	xchg   %ax,%ax
 1004dcb:	66 90                	xchg   %ax,%ax
 1004dcd:	66 90                	xchg   %ax,%ax
 1004dcf:	66 90                	xchg   %ax,%ax
 1004dd1:	66 90                	xchg   %ax,%ax
 1004dd3:	66 90                	xchg   %ax,%ax
 1004dd5:	66 90                	xchg   %ax,%ax
 1004dd7:	66 90                	xchg   %ax,%ax
 1004dd9:	66 90                	xchg   %ax,%ax
 1004ddb:	66 90                	xchg   %ax,%ax
 1004ddd:	66 90                	xchg   %ax,%ax
 1004ddf:	66 90                	xchg   %ax,%ax
 1004de1:	66 90                	xchg   %ax,%ax
 1004de3:	66 90                	xchg   %ax,%ax
 1004de5:	66 90                	xchg   %ax,%ax
 1004de7:	66 90                	xchg   %ax,%ax
 1004de9:	66 90                	xchg   %ax,%ax
 1004deb:	66 90                	xchg   %ax,%ax
 1004ded:	66 90                	xchg   %ax,%ax
 1004def:	66 90                	xchg   %ax,%ax
 1004df1:	66 90                	xchg   %ax,%ax
 1004df3:	66 90                	xchg   %ax,%ax
 1004df5:	66 90                	xchg   %ax,%ax
 1004df7:	66 90                	xchg   %ax,%ax
 1004df9:	66 90                	xchg   %ax,%ax
 1004dfb:	66 90                	xchg   %ax,%ax
 1004dfd:	66 90                	xchg   %ax,%ax
 1004dff:	66 90                	xchg   %ax,%ax
 1004e01:	66 90                	xchg   %ax,%ax
 1004e03:	66 90                	xchg   %ax,%ax
 1004e05:	66 90                	xchg   %ax,%ax
 1004e07:	66 90                	xchg   %ax,%ax
 1004e09:	66 90                	xchg   %ax,%ax
 1004e0b:	66 90                	xchg   %ax,%ax
 1004e0d:	66 90                	xchg   %ax,%ax
 1004e0f:	66 90                	xchg   %ax,%ax
 1004e11:	66 90                	xchg   %ax,%ax
 1004e13:	66 90                	xchg   %ax,%ax
 1004e15:	66 90                	xchg   %ax,%ax
 1004e17:	66 90                	xchg   %ax,%ax
 1004e19:	66 90                	xchg   %ax,%ax
 1004e1b:	66 90                	xchg   %ax,%ax
 1004e1d:	66 90                	xchg   %ax,%ax
 1004e1f:	66 90                	xchg   %ax,%ax
 1004e21:	66 90                	xchg   %ax,%ax
 1004e23:	66 90                	xchg   %ax,%ax
 1004e25:	66 90                	xchg   %ax,%ax
 1004e27:	66 90                	xchg   %ax,%ax
 1004e29:	66 90                	xchg   %ax,%ax
 1004e2b:	66 90                	xchg   %ax,%ax
 1004e2d:	66 90                	xchg   %ax,%ax
 1004e2f:	66 90                	xchg   %ax,%ax
 1004e31:	66 90                	xchg   %ax,%ax
 1004e33:	66 90                	xchg   %ax,%ax
 1004e35:	66 90                	xchg   %ax,%ax
 1004e37:	66 90                	xchg   %ax,%ax
 1004e39:	66 90                	xchg   %ax,%ax
 1004e3b:	66 90                	xchg   %ax,%ax
 1004e3d:	66 90                	xchg   %ax,%ax
 1004e3f:	66 90                	xchg   %ax,%ax
 1004e41:	66 90                	xchg   %ax,%ax
 1004e43:	66 90                	xchg   %ax,%ax
 1004e45:	66 90                	xchg   %ax,%ax
 1004e47:	66 90                	xchg   %ax,%ax
 1004e49:	66 90                	xchg   %ax,%ax
 1004e4b:	66 90                	xchg   %ax,%ax
 1004e4d:	66 90                	xchg   %ax,%ax
 1004e4f:	66 90                	xchg   %ax,%ax
 1004e51:	66 90                	xchg   %ax,%ax
 1004e53:	66 90                	xchg   %ax,%ax
 1004e55:	66 90                	xchg   %ax,%ax
 1004e57:	66 90                	xchg   %ax,%ax
 1004e59:	66 90                	xchg   %ax,%ax
 1004e5b:	66 90                	xchg   %ax,%ax
 1004e5d:	66 90                	xchg   %ax,%ax
 1004e5f:	66 90                	xchg   %ax,%ax
 1004e61:	66 90                	xchg   %ax,%ax
 1004e63:	66 90                	xchg   %ax,%ax
 1004e65:	66 90                	xchg   %ax,%ax
 1004e67:	66 90                	xchg   %ax,%ax
 1004e69:	66 90                	xchg   %ax,%ax
 1004e6b:	66 90                	xchg   %ax,%ax
 1004e6d:	66 90                	xchg   %ax,%ax
 1004e6f:	66 90                	xchg   %ax,%ax
 1004e71:	66 90                	xchg   %ax,%ax
 1004e73:	66 90                	xchg   %ax,%ax
 1004e75:	66 90                	xchg   %ax,%ax
 1004e77:	66 90                	xchg   %ax,%ax
 1004e79:	66 90                	xchg   %ax,%ax
 1004e7b:	66 90                	xchg   %ax,%ax
 1004e7d:	66 90                	xchg   %ax,%ax
 1004e7f:	66 90                	xchg   %ax,%ax
 1004e81:	66 90                	xchg   %ax,%ax
 1004e83:	66 90                	xchg   %ax,%ax
 1004e85:	66 90                	xchg   %ax,%ax
 1004e87:	66 90                	xchg   %ax,%ax
 1004e89:	66 90                	xchg   %ax,%ax
 1004e8b:	66 90                	xchg   %ax,%ax
 1004e8d:	66 90                	xchg   %ax,%ax
 1004e8f:	66 90                	xchg   %ax,%ax
 1004e91:	66 90                	xchg   %ax,%ax
 1004e93:	66 90                	xchg   %ax,%ax
 1004e95:	66 90                	xchg   %ax,%ax
 1004e97:	66 90                	xchg   %ax,%ax
 1004e99:	66 90                	xchg   %ax,%ax
 1004e9b:	66 90                	xchg   %ax,%ax
 1004e9d:	66 90                	xchg   %ax,%ax
 1004e9f:	66 90                	xchg   %ax,%ax
 1004ea1:	66 90                	xchg   %ax,%ax
 1004ea3:	66 90                	xchg   %ax,%ax
 1004ea5:	66 90                	xchg   %ax,%ax
 1004ea7:	66 90                	xchg   %ax,%ax
 1004ea9:	66 90                	xchg   %ax,%ax
 1004eab:	66 90                	xchg   %ax,%ax
 1004ead:	66 90                	xchg   %ax,%ax
 1004eaf:	66 90                	xchg   %ax,%ax
 1004eb1:	66 90                	xchg   %ax,%ax
 1004eb3:	66 90                	xchg   %ax,%ax
 1004eb5:	66 90                	xchg   %ax,%ax
 1004eb7:	66 90                	xchg   %ax,%ax
 1004eb9:	66 90                	xchg   %ax,%ax
 1004ebb:	66 90                	xchg   %ax,%ax
 1004ebd:	66 90                	xchg   %ax,%ax
 1004ebf:	66 90                	xchg   %ax,%ax
 1004ec1:	66 90                	xchg   %ax,%ax
 1004ec3:	66 90                	xchg   %ax,%ax
 1004ec5:	66 90                	xchg   %ax,%ax
 1004ec7:	66 90                	xchg   %ax,%ax
 1004ec9:	66 90                	xchg   %ax,%ax
 1004ecb:	66 90                	xchg   %ax,%ax
 1004ecd:	66 90                	xchg   %ax,%ax
 1004ecf:	66 90                	xchg   %ax,%ax
 1004ed1:	66 90                	xchg   %ax,%ax
 1004ed3:	66 90                	xchg   %ax,%ax
 1004ed5:	66 90                	xchg   %ax,%ax
 1004ed7:	66 90                	xchg   %ax,%ax
 1004ed9:	66 90                	xchg   %ax,%ax
 1004edb:	66 90                	xchg   %ax,%ax
 1004edd:	66 90                	xchg   %ax,%ax
 1004edf:	66 90                	xchg   %ax,%ax
 1004ee1:	66 90                	xchg   %ax,%ax
 1004ee3:	66 90                	xchg   %ax,%ax
 1004ee5:	66 90                	xchg   %ax,%ax
 1004ee7:	66 90                	xchg   %ax,%ax
 1004ee9:	66 90                	xchg   %ax,%ax
 1004eeb:	66 90                	xchg   %ax,%ax
 1004eed:	66 90                	xchg   %ax,%ax
 1004eef:	66 90                	xchg   %ax,%ax
 1004ef1:	66 90                	xchg   %ax,%ax
 1004ef3:	66 90                	xchg   %ax,%ax
 1004ef5:	66 90                	xchg   %ax,%ax
 1004ef7:	66 90                	xchg   %ax,%ax
 1004ef9:	66 90                	xchg   %ax,%ax
 1004efb:	66 90                	xchg   %ax,%ax
 1004efd:	66 90                	xchg   %ax,%ax
 1004eff:	66 90                	xchg   %ax,%ax
 1004f01:	66 90                	xchg   %ax,%ax
 1004f03:	66 90                	xchg   %ax,%ax
 1004f05:	66 90                	xchg   %ax,%ax
 1004f07:	66 90                	xchg   %ax,%ax
 1004f09:	66 90                	xchg   %ax,%ax
 1004f0b:	66 90                	xchg   %ax,%ax
 1004f0d:	66 90                	xchg   %ax,%ax
 1004f0f:	66 90                	xchg   %ax,%ax
 1004f11:	66 90                	xchg   %ax,%ax
 1004f13:	66 90                	xchg   %ax,%ax
 1004f15:	66 90                	xchg   %ax,%ax
 1004f17:	66 90                	xchg   %ax,%ax
 1004f19:	66 90                	xchg   %ax,%ax
 1004f1b:	66 90                	xchg   %ax,%ax
 1004f1d:	66 90                	xchg   %ax,%ax
 1004f1f:	66 90                	xchg   %ax,%ax
 1004f21:	66 90                	xchg   %ax,%ax
 1004f23:	66 90                	xchg   %ax,%ax
 1004f25:	66 90                	xchg   %ax,%ax
 1004f27:	66 90                	xchg   %ax,%ax
 1004f29:	66 90                	xchg   %ax,%ax
 1004f2b:	66 90                	xchg   %ax,%ax
 1004f2d:	66 90                	xchg   %ax,%ax
 1004f2f:	66 90                	xchg   %ax,%ax
 1004f31:	66 90                	xchg   %ax,%ax
 1004f33:	66 90                	xchg   %ax,%ax
 1004f35:	66 90                	xchg   %ax,%ax
 1004f37:	66 90                	xchg   %ax,%ax
 1004f39:	66 90                	xchg   %ax,%ax
 1004f3b:	66 90                	xchg   %ax,%ax
 1004f3d:	66 90                	xchg   %ax,%ax
 1004f3f:	66 90                	xchg   %ax,%ax
 1004f41:	66 90                	xchg   %ax,%ax
 1004f43:	66 90                	xchg   %ax,%ax
 1004f45:	66 90                	xchg   %ax,%ax
 1004f47:	66 90                	xchg   %ax,%ax
 1004f49:	66 90                	xchg   %ax,%ax
 1004f4b:	66 90                	xchg   %ax,%ax
 1004f4d:	66 90                	xchg   %ax,%ax
 1004f4f:	66 90                	xchg   %ax,%ax
 1004f51:	66 90                	xchg   %ax,%ax
 1004f53:	66 90                	xchg   %ax,%ax
 1004f55:	66 90                	xchg   %ax,%ax
 1004f57:	66 90                	xchg   %ax,%ax
 1004f59:	66 90                	xchg   %ax,%ax
 1004f5b:	66 90                	xchg   %ax,%ax
 1004f5d:	66 90                	xchg   %ax,%ax
 1004f5f:	66 90                	xchg   %ax,%ax
 1004f61:	66 90                	xchg   %ax,%ax
 1004f63:	66 90                	xchg   %ax,%ax
 1004f65:	66 90                	xchg   %ax,%ax
 1004f67:	66 90                	xchg   %ax,%ax
 1004f69:	66 90                	xchg   %ax,%ax
 1004f6b:	66 90                	xchg   %ax,%ax
 1004f6d:	66 90                	xchg   %ax,%ax
 1004f6f:	66 90                	xchg   %ax,%ax
 1004f71:	66 90                	xchg   %ax,%ax
 1004f73:	66 90                	xchg   %ax,%ax
 1004f75:	66 90                	xchg   %ax,%ax
 1004f77:	66 90                	xchg   %ax,%ax
 1004f79:	66 90                	xchg   %ax,%ax
 1004f7b:	66 90                	xchg   %ax,%ax
 1004f7d:	66 90                	xchg   %ax,%ax
 1004f7f:	66 90                	xchg   %ax,%ax
 1004f81:	66 90                	xchg   %ax,%ax
 1004f83:	66 90                	xchg   %ax,%ax
 1004f85:	66 90                	xchg   %ax,%ax
 1004f87:	66 90                	xchg   %ax,%ax
 1004f89:	66 90                	xchg   %ax,%ax
 1004f8b:	66 90                	xchg   %ax,%ax
 1004f8d:	66 90                	xchg   %ax,%ax
 1004f8f:	66 90                	xchg   %ax,%ax
 1004f91:	66 90                	xchg   %ax,%ax
 1004f93:	66 90                	xchg   %ax,%ax
 1004f95:	66 90                	xchg   %ax,%ax
 1004f97:	66 90                	xchg   %ax,%ax
 1004f99:	66 90                	xchg   %ax,%ax
 1004f9b:	66 90                	xchg   %ax,%ax
 1004f9d:	66 90                	xchg   %ax,%ax
 1004f9f:	66 90                	xchg   %ax,%ax
 1004fa1:	66 90                	xchg   %ax,%ax
 1004fa3:	66 90                	xchg   %ax,%ax
 1004fa5:	66 90                	xchg   %ax,%ax
 1004fa7:	66 90                	xchg   %ax,%ax
 1004fa9:	66 90                	xchg   %ax,%ax
 1004fab:	66 90                	xchg   %ax,%ax
 1004fad:	66 90                	xchg   %ax,%ax
 1004faf:	66 90                	xchg   %ax,%ax
 1004fb1:	66 90                	xchg   %ax,%ax
 1004fb3:	66 90                	xchg   %ax,%ax
 1004fb5:	66 90                	xchg   %ax,%ax
 1004fb7:	66 90                	xchg   %ax,%ax
 1004fb9:	66 90                	xchg   %ax,%ax
 1004fbb:	66 90                	xchg   %ax,%ax
 1004fbd:	66 90                	xchg   %ax,%ax
 1004fbf:	66 90                	xchg   %ax,%ax
 1004fc1:	66 90                	xchg   %ax,%ax
 1004fc3:	66 90                	xchg   %ax,%ax
 1004fc5:	66 90                	xchg   %ax,%ax
 1004fc7:	66 90                	xchg   %ax,%ax
 1004fc9:	66 90                	xchg   %ax,%ax
 1004fcb:	66 90                	xchg   %ax,%ax
 1004fcd:	66 90                	xchg   %ax,%ax
 1004fcf:	66 90                	xchg   %ax,%ax
 1004fd1:	66 90                	xchg   %ax,%ax
 1004fd3:	66 90                	xchg   %ax,%ax
 1004fd5:	66 90                	xchg   %ax,%ax
 1004fd7:	66 90                	xchg   %ax,%ax
 1004fd9:	66 90                	xchg   %ax,%ax
 1004fdb:	66 90                	xchg   %ax,%ax
 1004fdd:	66 90                	xchg   %ax,%ax
 1004fdf:	66 90                	xchg   %ax,%ax
 1004fe1:	66 90                	xchg   %ax,%ax
 1004fe3:	66 90                	xchg   %ax,%ax
 1004fe5:	66 90                	xchg   %ax,%ax
 1004fe7:	66 90                	xchg   %ax,%ax
 1004fe9:	66 90                	xchg   %ax,%ax
 1004feb:	66 90                	xchg   %ax,%ax
 1004fed:	66 90                	xchg   %ax,%ax
 1004fef:	66 90                	xchg   %ax,%ax
 1004ff1:	66 90                	xchg   %ax,%ax
 1004ff3:	66 90                	xchg   %ax,%ax
 1004ff5:	66 90                	xchg   %ax,%ax
 1004ff7:	66 90                	xchg   %ax,%ax
 1004ff9:	66 90                	xchg   %ax,%ax
 1004ffb:	66 90                	xchg   %ax,%ax
 1004ffd:	66 90                	xchg   %ax,%ax
 1004fff:	90                   	nop

Disassembly of section .eh_frame:

01005000 <.eh_frame>:
 1005000:	14 00                	adc    $0x0,%al
 1005002:	00 00                	add    %al,(%eax)
 1005004:	00 00                	add    %al,(%eax)
 1005006:	00 00                	add    %al,(%eax)
 1005008:	01 7a 52             	add    %edi,0x52(%edx)
 100500b:	00 01                	add    %al,(%ecx)
 100500d:	7c 08                	jl     1005017 <kernel_main+0xa99>
 100500f:	01 1b                	add    %ebx,(%ebx)
 1005011:	0c 04                	or     $0x4,%al
 1005013:	04 88                	add    $0x88,%al
 1005015:	01 00                	add    %eax,(%eax)
 1005017:	00 1c 00             	add    %bl,(%eax,%eax,1)
 100501a:	00 00                	add    %al,(%eax)
 100501c:	1c 00                	sbb    $0x0,%al
 100501e:	00 00                	add    %al,(%eax)
 1005020:	ee                   	out    %al,(%dx)
 1005021:	af                   	scas   %es:(%edi),%eax
 1005022:	ff                   	(bad)  
 1005023:	ff 12                	call   *(%edx)
 1005025:	00 00                	add    %al,(%eax)
 1005027:	00 00                	add    %al,(%eax)
 1005029:	41                   	inc    %ecx
 100502a:	0e                   	push   %cs
 100502b:	08 85 02 42 0d 05    	or     %al,0x50d4202(%ebp)
 1005031:	4e                   	dec    %esi
 1005032:	c5 0c 04             	lds    (%esp,%eax,1),%ecx
 1005035:	04 00                	add    $0x0,%al
 1005037:	00 1c 00             	add    %bl,(%eax,%eax,1)
 100503a:	00 00                	add    %al,(%eax)
 100503c:	3c 00                	cmp    $0x0,%al
 100503e:	00 00                	add    %al,(%eax)
 1005040:	e0 af                	loopne 1004ff1 <kernel_main+0xa73>
 1005042:	ff                   	(bad)  
 1005043:	ff 06                	incl   (%esi)
 1005045:	00 00                	add    %al,(%eax)
 1005047:	00 00                	add    %al,(%eax)
 1005049:	41                   	inc    %ecx
 100504a:	0e                   	push   %cs
 100504b:	08 85 02 42 0d 05    	or     %al,0x50d4202(%ebp)
 1005051:	42                   	inc    %edx
 1005052:	c5 0c 04             	lds    (%esp,%eax,1),%ecx
 1005055:	04 00                	add    $0x0,%al
 1005057:	00 1c 00             	add    %bl,(%eax,%eax,1)
 100505a:	00 00                	add    %al,(%eax)
 100505c:	5c                   	pop    %esp
 100505d:	00 00                	add    %al,(%eax)
 100505f:	00 c6                	add    %al,%dh
 1005061:	af                   	scas   %es:(%edi),%eax
 1005062:	ff                   	(bad)  
 1005063:	ff 06                	incl   (%esi)
 1005065:	00 00                	add    %al,(%eax)
 1005067:	00 00                	add    %al,(%eax)
 1005069:	41                   	inc    %ecx
 100506a:	0e                   	push   %cs
 100506b:	08 85 02 42 0d 05    	or     %al,0x50d4202(%ebp)
 1005071:	42                   	inc    %edx
 1005072:	c5 0c 04             	lds    (%esp,%eax,1),%ecx
 1005075:	04 00                	add    $0x0,%al
 1005077:	00 1c 00             	add    %bl,(%eax,%eax,1)
 100507a:	00 00                	add    %al,(%eax)
 100507c:	7c 00                	jl     100507e <kernel_main+0xb00>
 100507e:	00 00                	add    %al,(%eax)
 1005080:	ac                   	lods   %ds:(%esi),%al
 1005081:	af                   	scas   %es:(%edi),%eax
 1005082:	ff                   	(bad)  
 1005083:	ff 1b                	lcall  *(%ebx)
 1005085:	00 00                	add    %al,(%eax)
 1005087:	00 00                	add    %al,(%eax)
 1005089:	41                   	inc    %ecx
 100508a:	0e                   	push   %cs
 100508b:	08 85 02 42 0d 05    	or     %al,0x50d4202(%ebp)
 1005091:	57                   	push   %edi
 1005092:	c5 0c 04             	lds    (%esp,%eax,1),%ecx
 1005095:	04 00                	add    $0x0,%al
 1005097:	00 1c 00             	add    %bl,(%eax,%eax,1)
 100509a:	00 00                	add    %al,(%eax)
 100509c:	9c                   	pushf  
 100509d:	00 00                	add    %al,(%eax)
 100509f:	00 a7 af ff ff 1c    	add    %ah,0x1cffffaf(%edi)
 10050a5:	00 00                	add    %al,(%eax)
 10050a7:	00 00                	add    %al,(%eax)
 10050a9:	41                   	inc    %ecx
 10050aa:	0e                   	push   %cs
 10050ab:	08 85 02 42 0d 05    	or     %al,0x50d4202(%ebp)
 10050b1:	58                   	pop    %eax
 10050b2:	c5 0c 04             	lds    (%esp,%eax,1),%ecx
 10050b5:	04 00                	add    $0x0,%al
 10050b7:	00 1c 00             	add    %bl,(%eax,%eax,1)
 10050ba:	00 00                	add    %al,(%eax)
 10050bc:	bc 00 00 00 a3       	mov    $0xa3000000,%esp
 10050c1:	af                   	scas   %es:(%edi),%eax
 10050c2:	ff                   	(bad)  
 10050c3:	ff 19                	lcall  *(%ecx)
 10050c5:	00 00                	add    %al,(%eax)
 10050c7:	00 00                	add    %al,(%eax)
 10050c9:	41                   	inc    %ecx
 10050ca:	0e                   	push   %cs
 10050cb:	08 85 02 42 0d 05    	or     %al,0x50d4202(%ebp)
 10050d1:	55                   	push   %ebp
 10050d2:	c5 0c 04             	lds    (%esp,%eax,1),%ecx
 10050d5:	04 00                	add    $0x0,%al
 10050d7:	00 1c 00             	add    %bl,(%eax,%eax,1)
 10050da:	00 00                	add    %al,(%eax)
 10050dc:	dc 00                	faddl  (%eax)
 10050de:	00 00                	add    %al,(%eax)
 10050e0:	9c                   	pushf  
 10050e1:	af                   	scas   %es:(%edi),%eax
 10050e2:	ff                   	(bad)  
 10050e3:	ff 0c 00             	decl   (%eax,%eax,1)
 10050e6:	00 00                	add    %al,(%eax)
 10050e8:	00 41 0e             	add    %al,0xe(%ecx)
 10050eb:	08 85 02 42 0d 05    	or     %al,0x50d4202(%ebp)
 10050f1:	48                   	dec    %eax
 10050f2:	c5 0c 04             	lds    (%esp,%eax,1),%ecx
 10050f5:	04 00                	add    $0x0,%al
 10050f7:	00 1c 00             	add    %bl,(%eax,%eax,1)
 10050fa:	00 00                	add    %al,(%eax)
 10050fc:	fc                   	cld    
 10050fd:	00 00                	add    %al,(%eax)
 10050ff:	00 88 af ff ff 18    	add    %cl,0x18ffffaf(%eax)
 1005105:	00 00                	add    %al,(%eax)
 1005107:	00 00                	add    %al,(%eax)
 1005109:	41                   	inc    %ecx
 100510a:	0e                   	push   %cs
 100510b:	08 85 02 42 0d 05    	or     %al,0x50d4202(%ebp)
 1005111:	54                   	push   %esp
 1005112:	c5 0c 04             	lds    (%esp,%eax,1),%ecx
 1005115:	04 00                	add    $0x0,%al
 1005117:	00 1c 00             	add    %bl,(%eax,%eax,1)
 100511a:	00 00                	add    %al,(%eax)
 100511c:	1c 01                	sbb    $0x1,%al
 100511e:	00 00                	add    %al,(%eax)
 1005120:	80 af ff ff 16 00 00 	subb   $0x0,0x16ffff(%edi)
 1005127:	00 00                	add    %al,(%eax)
 1005129:	41                   	inc    %ecx
 100512a:	0e                   	push   %cs
 100512b:	08 85 02 42 0d 05    	or     %al,0x50d4202(%ebp)
 1005131:	52                   	push   %edx
 1005132:	c5 0c 04             	lds    (%esp,%eax,1),%ecx
 1005135:	04 00                	add    $0x0,%al
 1005137:	00 1c 00             	add    %bl,(%eax,%eax,1)
 100513a:	00 00                	add    %al,(%eax)
 100513c:	3c 01                	cmp    $0x1,%al
 100513e:	00 00                	add    %al,(%eax)
 1005140:	76 af                	jbe    10050f1 <kernel_main+0xb73>
 1005142:	ff                   	(bad)  
 1005143:	ff 1d 01 00 00 00    	lcall  *0x1
 1005149:	41                   	inc    %ecx
 100514a:	0e                   	push   %cs
 100514b:	08 85 02 42 0d 05    	or     %al,0x50d4202(%ebp)
 1005151:	03 19                	add    (%ecx),%ebx
 1005153:	01 c5                	add    %eax,%ebp
 1005155:	0c 04                	or     $0x4,%al
 1005157:	04 20                	add    $0x20,%al
 1005159:	00 00                	add    %al,(%eax)
 100515b:	00 5c 01 00          	add    %bl,0x0(%ecx,%eax,1)
 100515f:	00 73 b0             	add    %dh,-0x50(%ebx)
 1005162:	ff                   	(bad)  
 1005163:	ff cc                	dec    %esp
 1005165:	00 00                	add    %al,(%eax)
 1005167:	00 00                	add    %al,(%eax)
 1005169:	41                   	inc    %ecx
 100516a:	0e                   	push   %cs
 100516b:	08 85 02 42 0d 05    	or     %al,0x50d4202(%ebp)
 1005171:	44                   	inc    %esp
 1005172:	83 03 02             	addl   $0x2,(%ebx)
 1005175:	c3                   	ret    
 1005176:	c3                   	ret    
 1005177:	41                   	inc    %ecx
 1005178:	c5 0c 04             	lds    (%esp,%eax,1),%ecx
 100517b:	04 1c                	add    $0x1c,%al
 100517d:	00 00                	add    %al,(%eax)
 100517f:	00 80 01 00 00 1b    	add    %al,0x1b000001(%eax)
 1005185:	b1 ff                	mov    $0xff,%cl
 1005187:	ff 18                	lcall  *(%eax)
 1005189:	02 00                	add    (%eax),%al
 100518b:	00 00                	add    %al,(%eax)
 100518d:	41                   	inc    %ecx
 100518e:	0e                   	push   %cs
 100518f:	08 85 02 42 0d 05    	or     %al,0x50d4202(%ebp)
 1005195:	03 14 02             	add    (%edx,%eax,1),%edx
 1005198:	c5 0c 04             	lds    (%esp,%eax,1),%ecx
 100519b:	04 1c                	add    $0x1c,%al
 100519d:	00 00                	add    %al,(%eax)
 100519f:	00 a0 01 00 00 13    	add    %ah,0x13000001(%eax)
 10051a5:	b3 ff                	mov    $0xff,%bl
 10051a7:	ff 0d 00 00 00 00    	decl   0x0
 10051ad:	41                   	inc    %ecx
 10051ae:	0e                   	push   %cs
 10051af:	08 85 02 42 0d 05    	or     %al,0x50d4202(%ebp)
 10051b5:	49                   	dec    %ecx
 10051b6:	c5 0c 04             	lds    (%esp,%eax,1),%ecx
 10051b9:	04 00                	add    $0x0,%al
 10051bb:	00 1c 00             	add    %bl,(%eax,%eax,1)
 10051be:	00 00                	add    %al,(%eax)
 10051c0:	c0 01 00             	rolb   $0x0,(%ecx)
 10051c3:	00 00                	add    %al,(%eax)
 10051c5:	b3 ff                	mov    $0xff,%bl
 10051c7:	ff 19                	lcall  *(%ecx)
 10051c9:	00 00                	add    %al,(%eax)
 10051cb:	00 00                	add    %al,(%eax)
 10051cd:	41                   	inc    %ecx
 10051ce:	0e                   	push   %cs
 10051cf:	08 85 02 42 0d 05    	or     %al,0x50d4202(%ebp)
 10051d5:	55                   	push   %ebp
 10051d6:	c5 0c 04             	lds    (%esp,%eax,1),%ecx
 10051d9:	04 00                	add    $0x0,%al
 10051db:	00 1c 00             	add    %bl,(%eax,%eax,1)
 10051de:	00 00                	add    %al,(%eax)
 10051e0:	e0 01                	loopne 10051e3 <kernel_main+0xc65>
 10051e2:	00 00                	add    %al,(%eax)
 10051e4:	f9                   	stc    
 10051e5:	b2 ff                	mov    $0xff,%dl
 10051e7:	ff 55 00             	call   *0x0(%ebp)
 10051ea:	00 00                	add    %al,(%eax)
 10051ec:	00 41 0e             	add    %al,0xe(%ecx)
 10051ef:	08 85 02 42 0d 05    	or     %al,0x50d4202(%ebp)
 10051f5:	02 51 c5             	add    -0x3b(%ecx),%dl
 10051f8:	0c 04                	or     $0x4,%al
 10051fa:	04 00                	add    $0x0,%al
 10051fc:	1c 00                	sbb    $0x0,%al
 10051fe:	00 00                	add    %al,(%eax)
 1005200:	00 02                	add    %al,(%edx)
 1005202:	00 00                	add    %al,(%eax)
 1005204:	2e b3 ff             	cs mov $0xff,%bl
 1005207:	ff 0c 00             	decl   (%eax,%eax,1)
 100520a:	00 00                	add    %al,(%eax)
 100520c:	00 41 0e             	add    %al,0xe(%ecx)
 100520f:	08 85 02 42 0d 05    	or     %al,0x50d4202(%ebp)
 1005215:	48                   	dec    %eax
 1005216:	c5 0c 04             	lds    (%esp,%eax,1),%ecx
 1005219:	04 00                	add    $0x0,%al
 100521b:	00 18                	add    %bl,(%eax)
 100521d:	00 00                	add    %al,(%eax)
 100521f:	00 20                	add    %ah,(%eax)
 1005221:	02 00                	add    (%eax),%al
 1005223:	00 20                	add    %ah,(%eax)
 1005225:	b3 ff                	mov    $0xff,%bl
 1005227:	ff 1a                	lcall  *(%edx)
 1005229:	00 00                	add    %al,(%eax)
 100522b:	00 00                	add    %al,(%eax)
 100522d:	41                   	inc    %ecx
 100522e:	0e                   	push   %cs
 100522f:	08 85 02 42 0d 05    	or     %al,0x50d4202(%ebp)
 1005235:	00 00                	add    %al,(%eax)
 1005237:	00 18                	add    %bl,(%eax)
 1005239:	00 00                	add    %al,(%eax)
 100523b:	00 3c 02             	add    %bh,(%edx,%eax,1)
 100523e:	00 00                	add    %al,(%eax)
 1005240:	24 b3                	and    $0xb3,%al
 1005242:	ff                   	(bad)  
 1005243:	ff 1a                	lcall  *(%edx)
 1005245:	00 00                	add    %al,(%eax)
 1005247:	00 00                	add    %al,(%eax)
 1005249:	41                   	inc    %ecx
 100524a:	0e                   	push   %cs
 100524b:	08 85 02 42 0d 05    	or     %al,0x50d4202(%ebp)
 1005251:	00 00                	add    %al,(%eax)
 1005253:	00 18                	add    %bl,(%eax)
 1005255:	00 00                	add    %al,(%eax)
 1005257:	00 58 02             	add    %bl,0x2(%eax)
 100525a:	00 00                	add    %al,(%eax)
 100525c:	28 b3 ff ff 1a 00    	sub    %dh,0x1affff(%ebx)
 1005262:	00 00                	add    %al,(%eax)
 1005264:	00 41 0e             	add    %al,0xe(%ecx)
 1005267:	08 85 02 42 0d 05    	or     %al,0x50d4202(%ebp)
 100526d:	00 00                	add    %al,(%eax)
 100526f:	00 18                	add    %bl,(%eax)
 1005271:	00 00                	add    %al,(%eax)
 1005273:	00 74 02 00          	add    %dh,0x0(%edx,%eax,1)
 1005277:	00 2c b3             	add    %ch,(%ebx,%esi,4)
 100527a:	ff                   	(bad)  
 100527b:	ff 1a                	lcall  *(%edx)
 100527d:	00 00                	add    %al,(%eax)
 100527f:	00 00                	add    %al,(%eax)
 1005281:	41                   	inc    %ecx
 1005282:	0e                   	push   %cs
 1005283:	08 85 02 42 0d 05    	or     %al,0x50d4202(%ebp)
 1005289:	00 00                	add    %al,(%eax)
 100528b:	00 18                	add    %bl,(%eax)
 100528d:	00 00                	add    %al,(%eax)
 100528f:	00 90 02 00 00 30    	add    %dl,0x30000002(%eax)
 1005295:	b3 ff                	mov    $0xff,%bl
 1005297:	ff 1a                	lcall  *(%edx)
 1005299:	00 00                	add    %al,(%eax)
 100529b:	00 00                	add    %al,(%eax)
 100529d:	41                   	inc    %ecx
 100529e:	0e                   	push   %cs
 100529f:	08 85 02 42 0d 05    	or     %al,0x50d4202(%ebp)
 10052a5:	00 00                	add    %al,(%eax)
 10052a7:	00 18                	add    %bl,(%eax)
 10052a9:	00 00                	add    %al,(%eax)
 10052ab:	00 ac 02 00 00 34 b3 	add    %ch,-0x4ccc0000(%edx,%eax,1)
 10052b2:	ff                   	(bad)  
 10052b3:	ff 1a                	lcall  *(%edx)
 10052b5:	00 00                	add    %al,(%eax)
 10052b7:	00 00                	add    %al,(%eax)
 10052b9:	41                   	inc    %ecx
 10052ba:	0e                   	push   %cs
 10052bb:	08 85 02 42 0d 05    	or     %al,0x50d4202(%ebp)
 10052c1:	00 00                	add    %al,(%eax)
 10052c3:	00 18                	add    %bl,(%eax)
 10052c5:	00 00                	add    %al,(%eax)
 10052c7:	00 c8                	add    %cl,%al
 10052c9:	02 00                	add    (%eax),%al
 10052cb:	00 38                	add    %bh,(%eax)
 10052cd:	b3 ff                	mov    $0xff,%bl
 10052cf:	ff 54 00 00          	call   *0x0(%eax,%eax,1)
 10052d3:	00 00                	add    %al,(%eax)
 10052d5:	41                   	inc    %ecx
 10052d6:	0e                   	push   %cs
 10052d7:	08 85 02 42 0d 05    	or     %al,0x50d4202(%ebp)
 10052dd:	00 00                	add    %al,(%eax)
 10052df:	00 18                	add    %bl,(%eax)
 10052e1:	00 00                	add    %al,(%eax)
 10052e3:	00 e4                	add    %ah,%ah
 10052e5:	02 00                	add    (%eax),%al
 10052e7:	00 76 b3             	add    %dh,-0x4d(%esi)
 10052ea:	ff                   	(bad)  
 10052eb:	ff 1a                	lcall  *(%edx)
 10052ed:	00 00                	add    %al,(%eax)
 10052ef:	00 00                	add    %al,(%eax)
 10052f1:	41                   	inc    %ecx
 10052f2:	0e                   	push   %cs
 10052f3:	08 85 02 42 0d 05    	or     %al,0x50d4202(%ebp)
 10052f9:	00 00                	add    %al,(%eax)
 10052fb:	00 18                	add    %bl,(%eax)
 10052fd:	00 00                	add    %al,(%eax)
 10052ff:	00 00                	add    %al,(%eax)
 1005301:	03 00                	add    (%eax),%eax
 1005303:	00 7a b3             	add    %bh,-0x4d(%edx)
 1005306:	ff                   	(bad)  
 1005307:	ff 1a                	lcall  *(%edx)
 1005309:	00 00                	add    %al,(%eax)
 100530b:	00 00                	add    %al,(%eax)
 100530d:	41                   	inc    %ecx
 100530e:	0e                   	push   %cs
 100530f:	08 85 02 42 0d 05    	or     %al,0x50d4202(%ebp)
 1005315:	00 00                	add    %al,(%eax)
 1005317:	00 1c 00             	add    %bl,(%eax,%eax,1)
 100531a:	00 00                	add    %al,(%eax)
 100531c:	1c 03                	sbb    $0x3,%al
 100531e:	00 00                	add    %al,(%eax)
 1005320:	7e b3                	jle    10052d5 <kernel_main+0xd57>
 1005322:	ff                   	(bad)  
 1005323:	ff 18                	lcall  *(%eax)
 1005325:	00 00                	add    %al,(%eax)
 1005327:	00 00                	add    %al,(%eax)
 1005329:	41                   	inc    %ecx
 100532a:	0e                   	push   %cs
 100532b:	08 85 02 42 0d 05    	or     %al,0x50d4202(%ebp)
 1005331:	54                   	push   %esp
 1005332:	c5 0c 04             	lds    (%esp,%eax,1),%ecx
 1005335:	04 00                	add    $0x0,%al
 1005337:	00 18                	add    %bl,(%eax)
 1005339:	00 00                	add    %al,(%eax)
 100533b:	00 3c 03             	add    %bh,(%ebx,%eax,1)
 100533e:	00 00                	add    %al,(%eax)
 1005340:	7c b3                	jl     10052f5 <kernel_main+0xd77>
 1005342:	ff                   	(bad)  
 1005343:	ff 1a                	lcall  *(%edx)
 1005345:	00 00                	add    %al,(%eax)
 1005347:	00 00                	add    %al,(%eax)
 1005349:	41                   	inc    %ecx
 100534a:	0e                   	push   %cs
 100534b:	08 85 02 42 0d 05    	or     %al,0x50d4202(%ebp)
 1005351:	00 00                	add    %al,(%eax)
 1005353:	00 18                	add    %bl,(%eax)
 1005355:	00 00                	add    %al,(%eax)
 1005357:	00 58 03             	add    %bl,0x3(%eax)
 100535a:	00 00                	add    %al,(%eax)
 100535c:	80 b3 ff ff 1a 00 00 	xorb   $0x0,0x1affff(%ebx)
 1005363:	00 00                	add    %al,(%eax)
 1005365:	41                   	inc    %ecx
 1005366:	0e                   	push   %cs
 1005367:	08 85 02 42 0d 05    	or     %al,0x50d4202(%ebp)
 100536d:	00 00                	add    %al,(%eax)
 100536f:	00 18                	add    %bl,(%eax)
 1005371:	00 00                	add    %al,(%eax)
 1005373:	00 74 03 00          	add    %dh,0x0(%ebx,%eax,1)
 1005377:	00 84 b3 ff ff 1a 00 	add    %al,0x1affff(%ebx,%esi,4)
 100537e:	00 00                	add    %al,(%eax)
 1005380:	00 41 0e             	add    %al,0xe(%ecx)
 1005383:	08 85 02 42 0d 05    	or     %al,0x50d4202(%ebp)
 1005389:	00 00                	add    %al,(%eax)
 100538b:	00 18                	add    %bl,(%eax)
 100538d:	00 00                	add    %al,(%eax)
 100538f:	00 90 03 00 00 88    	add    %dl,-0x77fffffd(%eax)
 1005395:	b3 ff                	mov    $0xff,%bl
 1005397:	ff 1a                	lcall  *(%edx)
 1005399:	00 00                	add    %al,(%eax)
 100539b:	00 00                	add    %al,(%eax)
 100539d:	41                   	inc    %ecx
 100539e:	0e                   	push   %cs
 100539f:	08 85 02 42 0d 05    	or     %al,0x50d4202(%ebp)
 10053a5:	00 00                	add    %al,(%eax)
 10053a7:	00 18                	add    %bl,(%eax)
 10053a9:	00 00                	add    %al,(%eax)
 10053ab:	00 ac 03 00 00 8c b3 	add    %ch,-0x4c740000(%ebx,%eax,1)
 10053b2:	ff                   	(bad)  
 10053b3:	ff 65 00             	jmp    *0x0(%ebp)
 10053b6:	00 00                	add    %al,(%eax)
 10053b8:	00 41 0e             	add    %al,0xe(%ecx)
 10053bb:	08 85 02 42 0d 05    	or     %al,0x50d4202(%ebp)
 10053c1:	00 00                	add    %al,(%eax)
 10053c3:	00 1c 00             	add    %bl,(%eax,%eax,1)
 10053c6:	00 00                	add    %al,(%eax)
 10053c8:	c8 03 00 00          	enter  $0x3,$0x0
 10053cc:	db b3 ff ff 18 00    	(bad)  0x18ffff(%ebx)
 10053d2:	00 00                	add    %al,(%eax)
 10053d4:	00 41 0e             	add    %al,0xe(%ecx)
 10053d7:	08 85 02 42 0d 05    	or     %al,0x50d4202(%ebp)
 10053dd:	54                   	push   %esp
 10053de:	c5 0c 04             	lds    (%esp,%eax,1),%ecx
 10053e1:	04 00                	add    $0x0,%al
 10053e3:	00 18                	add    %bl,(%eax)
 10053e5:	00 00                	add    %al,(%eax)
 10053e7:	00 e8                	add    %ch,%al
 10053e9:	03 00                	add    (%eax),%eax
 10053eb:	00 d9                	add    %bl,%cl
 10053ed:	b3 ff                	mov    $0xff,%bl
 10053ef:	ff 1a                	lcall  *(%edx)
 10053f1:	00 00                	add    %al,(%eax)
 10053f3:	00 00                	add    %al,(%eax)
 10053f5:	41                   	inc    %ecx
 10053f6:	0e                   	push   %cs
 10053f7:	08 85 02 42 0d 05    	or     %al,0x50d4202(%ebp)
 10053fd:	00 00                	add    %al,(%eax)
 10053ff:	00 18                	add    %bl,(%eax)
 1005401:	00 00                	add    %al,(%eax)
 1005403:	00 04 04             	add    %al,(%esp,%eax,1)
 1005406:	00 00                	add    %al,(%eax)
 1005408:	dd b3 ff ff 1a 00    	fnsave 0x1affff(%ebx)
 100540e:	00 00                	add    %al,(%eax)
 1005410:	00 41 0e             	add    %al,0xe(%ecx)
 1005413:	08 85 02 42 0d 05    	or     %al,0x50d4202(%ebp)
 1005419:	00 00                	add    %al,(%eax)
 100541b:	00 18                	add    %bl,(%eax)
 100541d:	00 00                	add    %al,(%eax)
 100541f:	00 20                	add    %ah,(%eax)
 1005421:	04 00                	add    $0x0,%al
 1005423:	00 e1                	add    %ah,%cl
 1005425:	b3 ff                	mov    $0xff,%bl
 1005427:	ff 1a                	lcall  *(%edx)
 1005429:	00 00                	add    %al,(%eax)
 100542b:	00 00                	add    %al,(%eax)
 100542d:	41                   	inc    %ecx
 100542e:	0e                   	push   %cs
 100542f:	08 85 02 42 0d 05    	or     %al,0x50d4202(%ebp)
 1005435:	00 00                	add    %al,(%eax)
 1005437:	00 18                	add    %bl,(%eax)
 1005439:	00 00                	add    %al,(%eax)
 100543b:	00 3c 04             	add    %bh,(%esp,%eax,1)
 100543e:	00 00                	add    %al,(%eax)
 1005440:	e5 b3                	in     $0xb3,%eax
 1005442:	ff                   	(bad)  
 1005443:	ff 1a                	lcall  *(%edx)
 1005445:	00 00                	add    %al,(%eax)
 1005447:	00 00                	add    %al,(%eax)
 1005449:	41                   	inc    %ecx
 100544a:	0e                   	push   %cs
 100544b:	08 85 02 42 0d 05    	or     %al,0x50d4202(%ebp)
 1005451:	00 00                	add    %al,(%eax)
 1005453:	00 1c 00             	add    %bl,(%eax,%eax,1)
 1005456:	00 00                	add    %al,(%eax)
 1005458:	58                   	pop    %eax
 1005459:	04 00                	add    $0x0,%al
 100545b:	00 f1                	add    %dh,%cl
 100545d:	b3 ff                	mov    $0xff,%bl
 100545f:	ff 05 00 00 00 00    	incl   0x0
 1005465:	41                   	inc    %ecx
 1005466:	0e                   	push   %cs
 1005467:	08 85 02 42 0d 05    	or     %al,0x50d4202(%ebp)
 100546d:	41                   	inc    %ecx
 100546e:	c5 0c 04             	lds    (%esp,%eax,1),%ecx
 1005471:	04 00                	add    $0x0,%al
 1005473:	00 18                	add    %bl,(%eax)
 1005475:	00 00                	add    %al,(%eax)
 1005477:	00 78 04             	add    %bh,0x4(%eax)
 100547a:	00 00                	add    %al,(%eax)
 100547c:	e4 b3                	in     $0xb3,%al
 100547e:	ff                   	(bad)  
 100547f:	ff 1a                	lcall  *(%edx)
 1005481:	00 00                	add    %al,(%eax)
 1005483:	00 00                	add    %al,(%eax)
 1005485:	41                   	inc    %ecx
 1005486:	0e                   	push   %cs
 1005487:	08 85 02 42 0d 05    	or     %al,0x50d4202(%ebp)
 100548d:	00 00                	add    %al,(%eax)
 100548f:	00 18                	add    %bl,(%eax)
 1005491:	00 00                	add    %al,(%eax)
 1005493:	00 94 04 00 00 f0 b3 	add    %dl,-0x4c100000(%esp,%eax,1)
 100549a:	ff                   	(bad)  
 100549b:	ff 07                	incl   (%edi)
 100549d:	00 00                	add    %al,(%eax)
 100549f:	00 00                	add    %al,(%eax)
 10054a1:	41                   	inc    %ecx
 10054a2:	0e                   	push   %cs
 10054a3:	08 85 02 42 0d 05    	or     %al,0x50d4202(%ebp)
 10054a9:	00 00                	add    %al,(%eax)
 10054ab:	00 18                	add    %bl,(%eax)
 10054ad:	00 00                	add    %al,(%eax)
 10054af:	00 b0 04 00 00 e9    	add    %dh,-0x16fffffc(%eax)
 10054b5:	b3 ff                	mov    $0xff,%bl
 10054b7:	ff 07                	incl   (%edi)
 10054b9:	00 00                	add    %al,(%eax)
 10054bb:	00 00                	add    %al,(%eax)
 10054bd:	41                   	inc    %ecx
 10054be:	0e                   	push   %cs
 10054bf:	08 85 02 42 0d 05    	or     %al,0x50d4202(%ebp)
 10054c5:	00 00                	add    %al,(%eax)
 10054c7:	00 1c 00             	add    %bl,(%eax,%eax,1)
 10054ca:	00 00                	add    %al,(%eax)
 10054cc:	cc                   	int3   
 10054cd:	04 00                	add    $0x0,%al
 10054cf:	00 e2                	add    %ah,%dl
 10054d1:	b3 ff                	mov    $0xff,%bl
 10054d3:	ff 18                	lcall  *(%eax)
 10054d5:	00 00                	add    %al,(%eax)
 10054d7:	00 00                	add    %al,(%eax)
 10054d9:	41                   	inc    %ecx
 10054da:	0e                   	push   %cs
 10054db:	08 85 02 42 0d 05    	or     %al,0x50d4202(%ebp)
 10054e1:	54                   	push   %esp
 10054e2:	c5 0c 04             	lds    (%esp,%eax,1),%ecx
 10054e5:	04 00                	add    $0x0,%al
 10054e7:	00 1c 00             	add    %bl,(%eax,%eax,1)
 10054ea:	00 00                	add    %al,(%eax)
 10054ec:	ec                   	in     (%dx),%al
 10054ed:	04 00                	add    $0x0,%al
 10054ef:	00 e8                	add    %ch,%al
 10054f1:	b3 ff                	mov    $0xff,%bl
 10054f3:	ff 18                	lcall  *(%eax)
 10054f5:	00 00                	add    %al,(%eax)
 10054f7:	00 00                	add    %al,(%eax)
 10054f9:	41                   	inc    %ecx
 10054fa:	0e                   	push   %cs
 10054fb:	08 85 02 42 0d 05    	or     %al,0x50d4202(%ebp)
 1005501:	54                   	push   %esp
 1005502:	c5 0c 04             	lds    (%esp,%eax,1),%ecx
 1005505:	04 00                	add    $0x0,%al
 1005507:	00 1c 00             	add    %bl,(%eax,%eax,1)
 100550a:	00 00                	add    %al,(%eax)
 100550c:	0c 05                	or     $0x5,%al
 100550e:	00 00                	add    %al,(%eax)
 1005510:	ee                   	out    %al,(%dx)
 1005511:	b3 ff                	mov    $0xff,%bl
 1005513:	ff 18                	lcall  *(%eax)
 1005515:	00 00                	add    %al,(%eax)
 1005517:	00 00                	add    %al,(%eax)
 1005519:	41                   	inc    %ecx
 100551a:	0e                   	push   %cs
 100551b:	08 85 02 42 0d 05    	or     %al,0x50d4202(%ebp)
 1005521:	54                   	push   %esp
 1005522:	c5 0c 04             	lds    (%esp,%eax,1),%ecx
 1005525:	04 00                	add    $0x0,%al
 1005527:	00 1c 00             	add    %bl,(%eax,%eax,1)
 100552a:	00 00                	add    %al,(%eax)
 100552c:	2c 05                	sub    $0x5,%al
 100552e:	00 00                	add    %al,(%eax)
 1005530:	f4                   	hlt    
 1005531:	b3 ff                	mov    $0xff,%bl
 1005533:	ff 18                	lcall  *(%eax)
 1005535:	00 00                	add    %al,(%eax)
 1005537:	00 00                	add    %al,(%eax)
 1005539:	41                   	inc    %ecx
 100553a:	0e                   	push   %cs
 100553b:	08 85 02 42 0d 05    	or     %al,0x50d4202(%ebp)
 1005541:	54                   	push   %esp
 1005542:	c5 0c 04             	lds    (%esp,%eax,1),%ecx
 1005545:	04 00                	add    $0x0,%al
 1005547:	00 1c 00             	add    %bl,(%eax,%eax,1)
 100554a:	00 00                	add    %al,(%eax)
 100554c:	4c                   	dec    %esp
 100554d:	05 00 00 fa b3       	add    $0xb3fa0000,%eax
 1005552:	ff                   	(bad)  
 1005553:	ff 18                	lcall  *(%eax)
 1005555:	00 00                	add    %al,(%eax)
 1005557:	00 00                	add    %al,(%eax)
 1005559:	41                   	inc    %ecx
 100555a:	0e                   	push   %cs
 100555b:	08 85 02 42 0d 05    	or     %al,0x50d4202(%ebp)
 1005561:	54                   	push   %esp
 1005562:	c5 0c 04             	lds    (%esp,%eax,1),%ecx
 1005565:	04 00                	add    $0x0,%al
 1005567:	00 1c 00             	add    %bl,(%eax,%eax,1)
 100556a:	00 00                	add    %al,(%eax)
 100556c:	6c                   	insb   (%dx),%es:(%edi)
 100556d:	05 00 00 00 b4       	add    $0xb4000000,%eax
 1005572:	ff                   	(bad)  
 1005573:	ff 18                	lcall  *(%eax)
 1005575:	00 00                	add    %al,(%eax)
 1005577:	00 00                	add    %al,(%eax)
 1005579:	41                   	inc    %ecx
 100557a:	0e                   	push   %cs
 100557b:	08 85 02 42 0d 05    	or     %al,0x50d4202(%ebp)
 1005581:	54                   	push   %esp
 1005582:	c5 0c 04             	lds    (%esp,%eax,1),%ecx
 1005585:	04 00                	add    $0x0,%al
 1005587:	00 1c 00             	add    %bl,(%eax,%eax,1)
 100558a:	00 00                	add    %al,(%eax)
 100558c:	8c 05 00 00 06 b4    	mov    %es,0xb4060000
 1005592:	ff                   	(bad)  
 1005593:	ff 18                	lcall  *(%eax)
 1005595:	00 00                	add    %al,(%eax)
 1005597:	00 00                	add    %al,(%eax)
 1005599:	41                   	inc    %ecx
 100559a:	0e                   	push   %cs
 100559b:	08 85 02 42 0d 05    	or     %al,0x50d4202(%ebp)
 10055a1:	54                   	push   %esp
 10055a2:	c5 0c 04             	lds    (%esp,%eax,1),%ecx
 10055a5:	04 00                	add    $0x0,%al
 10055a7:	00 1c 00             	add    %bl,(%eax,%eax,1)
 10055aa:	00 00                	add    %al,(%eax)
 10055ac:	ac                   	lods   %ds:(%esi),%al
 10055ad:	05 00 00 0c b4       	add    $0xb40c0000,%eax
 10055b2:	ff                   	(bad)  
 10055b3:	ff 18                	lcall  *(%eax)
 10055b5:	00 00                	add    %al,(%eax)
 10055b7:	00 00                	add    %al,(%eax)
 10055b9:	41                   	inc    %ecx
 10055ba:	0e                   	push   %cs
 10055bb:	08 85 02 42 0d 05    	or     %al,0x50d4202(%ebp)
 10055c1:	54                   	push   %esp
 10055c2:	c5 0c 04             	lds    (%esp,%eax,1),%ecx
 10055c5:	04 00                	add    $0x0,%al
 10055c7:	00 1c 00             	add    %bl,(%eax,%eax,1)
 10055ca:	00 00                	add    %al,(%eax)
 10055cc:	cc                   	int3   
 10055cd:	05 00 00 12 b4       	add    $0xb4120000,%eax
 10055d2:	ff                   	(bad)  
 10055d3:	ff 18                	lcall  *(%eax)
 10055d5:	00 00                	add    %al,(%eax)
 10055d7:	00 00                	add    %al,(%eax)
 10055d9:	41                   	inc    %ecx
 10055da:	0e                   	push   %cs
 10055db:	08 85 02 42 0d 05    	or     %al,0x50d4202(%ebp)
 10055e1:	54                   	push   %esp
 10055e2:	c5 0c 04             	lds    (%esp,%eax,1),%ecx
 10055e5:	04 00                	add    $0x0,%al
 10055e7:	00 1c 00             	add    %bl,(%eax,%eax,1)
 10055ea:	00 00                	add    %al,(%eax)
 10055ec:	ec                   	in     (%dx),%al
 10055ed:	05 00 00 18 b4       	add    $0xb4180000,%eax
 10055f2:	ff                   	(bad)  
 10055f3:	ff 18                	lcall  *(%eax)
 10055f5:	00 00                	add    %al,(%eax)
 10055f7:	00 00                	add    %al,(%eax)
 10055f9:	41                   	inc    %ecx
 10055fa:	0e                   	push   %cs
 10055fb:	08 85 02 42 0d 05    	or     %al,0x50d4202(%ebp)
 1005601:	54                   	push   %esp
 1005602:	c5 0c 04             	lds    (%esp,%eax,1),%ecx
 1005605:	04 00                	add    $0x0,%al
 1005607:	00 1c 00             	add    %bl,(%eax,%eax,1)
 100560a:	00 00                	add    %al,(%eax)
 100560c:	0c 06                	or     $0x6,%al
 100560e:	00 00                	add    %al,(%eax)
 1005610:	1e                   	push   %ds
 1005611:	b4 ff                	mov    $0xff,%ah
 1005613:	ff 18                	lcall  *(%eax)
 1005615:	00 00                	add    %al,(%eax)
 1005617:	00 00                	add    %al,(%eax)
 1005619:	41                   	inc    %ecx
 100561a:	0e                   	push   %cs
 100561b:	08 85 02 42 0d 05    	or     %al,0x50d4202(%ebp)
 1005621:	54                   	push   %esp
 1005622:	c5 0c 04             	lds    (%esp,%eax,1),%ecx
 1005625:	04 00                	add    $0x0,%al
 1005627:	00 1c 00             	add    %bl,(%eax,%eax,1)
 100562a:	00 00                	add    %al,(%eax)
 100562c:	2c 06                	sub    $0x6,%al
 100562e:	00 00                	add    %al,(%eax)
 1005630:	24 b4                	and    $0xb4,%al
 1005632:	ff                   	(bad)  
 1005633:	ff 18                	lcall  *(%eax)
 1005635:	00 00                	add    %al,(%eax)
 1005637:	00 00                	add    %al,(%eax)
 1005639:	41                   	inc    %ecx
 100563a:	0e                   	push   %cs
 100563b:	08 85 02 42 0d 05    	or     %al,0x50d4202(%ebp)
 1005641:	54                   	push   %esp
 1005642:	c5 0c 04             	lds    (%esp,%eax,1),%ecx
 1005645:	04 00                	add    $0x0,%al
 1005647:	00 1c 00             	add    %bl,(%eax,%eax,1)
 100564a:	00 00                	add    %al,(%eax)
 100564c:	4c                   	dec    %esp
 100564d:	06                   	push   %es
 100564e:	00 00                	add    %al,(%eax)
 1005650:	22 b4 ff ff 18 00 00 	and    0x18ff(%edi,%edi,8),%dh
 1005657:	00 00                	add    %al,(%eax)
 1005659:	41                   	inc    %ecx
 100565a:	0e                   	push   %cs
 100565b:	08 85 02 42 0d 05    	or     %al,0x50d4202(%ebp)
 1005661:	54                   	push   %esp
 1005662:	c5 0c 04             	lds    (%esp,%eax,1),%ecx
 1005665:	04 00                	add    $0x0,%al
 1005667:	00 1c 00             	add    %bl,(%eax,%eax,1)
 100566a:	00 00                	add    %al,(%eax)
 100566c:	6c                   	insb   (%dx),%es:(%edi)
 100566d:	06                   	push   %es
 100566e:	00 00                	add    %al,(%eax)
 1005670:	20 b4 ff ff 05 00 00 	and    %dh,0x5ff(%edi,%edi,8)
 1005677:	00 00                	add    %al,(%eax)
 1005679:	41                   	inc    %ecx
 100567a:	0e                   	push   %cs
 100567b:	08 85 02 42 0d 05    	or     %al,0x50d4202(%ebp)
 1005681:	41                   	inc    %ecx
 1005682:	c5 0c 04             	lds    (%esp,%eax,1),%ecx
 1005685:	04 00                	add    $0x0,%al
 1005687:	00 1c 00             	add    %bl,(%eax,%eax,1)
 100568a:	00 00                	add    %al,(%eax)
 100568c:	8c 06                	mov    %es,(%esi)
 100568e:	00 00                	add    %al,(%eax)
 1005690:	05 b4 ff ff 4d       	add    $0x4dffffb4,%eax
 1005695:	00 00                	add    %al,(%eax)
 1005697:	00 00                	add    %al,(%eax)
 1005699:	41                   	inc    %ecx
 100569a:	0e                   	push   %cs
 100569b:	08 85 02 42 0d 05    	or     %al,0x50d4202(%ebp)
 10056a1:	02 49 c5             	add    -0x3b(%ecx),%cl
 10056a4:	0c 04                	or     $0x4,%al
 10056a6:	04 00                	add    $0x0,%al
 10056a8:	1c 00                	sbb    $0x0,%al
 10056aa:	00 00                	add    %al,(%eax)
 10056ac:	ac                   	lods   %ds:(%esi),%al
 10056ad:	06                   	push   %es
 10056ae:	00 00                	add    %al,(%eax)
 10056b0:	32 b4 ff ff 70 00 00 	xor    0x70ff(%edi,%edi,8),%dh
 10056b7:	00 00                	add    %al,(%eax)
 10056b9:	41                   	inc    %ecx
 10056ba:	0e                   	push   %cs
 10056bb:	08 85 02 42 0d 05    	or     %al,0x50d4202(%ebp)
 10056c1:	02 6c c5 0c          	add    0xc(%ebp,%eax,8),%ch
 10056c5:	04 04                	add    $0x4,%al
 10056c7:	00 1c 00             	add    %bl,(%eax,%eax,1)
 10056ca:	00 00                	add    %al,(%eax)
 10056cc:	cc                   	int3   
 10056cd:	06                   	push   %es
 10056ce:	00 00                	add    %al,(%eax)
 10056d0:	82                   	(bad)  
 10056d1:	b4 ff                	mov    $0xff,%ah
 10056d3:	ff 5e 02             	lcall  *0x2(%esi)
 10056d6:	00 00                	add    %al,(%eax)
 10056d8:	00 41 0e             	add    %al,0xe(%ecx)
 10056db:	08 85 02 42 0d 05    	or     %al,0x50d4202(%ebp)
 10056e1:	03 5a 02             	add    0x2(%edx),%ebx
 10056e4:	c5 0c 04             	lds    (%esp,%eax,1),%ecx
 10056e7:	04 1c                	add    $0x1c,%al
 10056e9:	00 00                	add    %al,(%eax)
 10056eb:	00 ec                	add    %ch,%ah
 10056ed:	06                   	push   %es
 10056ee:	00 00                	add    %al,(%eax)
 10056f0:	c0                   	(bad)  
 10056f1:	b6 ff                	mov    $0xff,%dh
 10056f3:	ff 2f                	ljmp   *(%edi)
 10056f5:	00 00                	add    %al,(%eax)
 10056f7:	00 00                	add    %al,(%eax)
 10056f9:	41                   	inc    %ecx
 10056fa:	0e                   	push   %cs
 10056fb:	08 85 02 42 0d 05    	or     %al,0x50d4202(%ebp)
 1005701:	6b c5 0c             	imul   $0xc,%ebp,%eax
 1005704:	04 04                	add    $0x4,%al
 1005706:	00 00                	add    %al,(%eax)
 1005708:	1c 00                	sbb    $0x0,%al
 100570a:	00 00                	add    %al,(%eax)
 100570c:	0c 07                	or     $0x7,%al
 100570e:	00 00                	add    %al,(%eax)
 1005710:	cf                   	iret   
 1005711:	b6 ff                	mov    $0xff,%dh
 1005713:	ff 8f 04 00 00 00    	decl   0x4(%edi)
 1005719:	41                   	inc    %ecx
 100571a:	0e                   	push   %cs
 100571b:	08 85 02 42 0d 05    	or     %al,0x50d4202(%ebp)
 1005721:	03 8b 04 c5 0c 04    	add    0x40cc504(%ebx),%ecx
 1005727:	04 1c                	add    $0x1c,%al
 1005729:	00 00                	add    %al,(%eax)
 100572b:	00 2c 07             	add    %ch,(%edi,%eax,1)
 100572e:	00 00                	add    %al,(%eax)
 1005730:	3e bb ff ff 5c 00    	ds mov $0x5cffff,%ebx
 1005736:	00 00                	add    %al,(%eax)
 1005738:	00 41 0e             	add    %al,0xe(%ecx)
 100573b:	08 85 02 42 0d 05    	or     %al,0x50d4202(%ebp)
 1005741:	02 58 c5             	add    -0x3b(%eax),%bl
 1005744:	0c 04                	or     $0x4,%al
 1005746:	04 00                	add    $0x0,%al
 1005748:	1c 00                	sbb    $0x0,%al
 100574a:	00 00                	add    %al,(%eax)
 100574c:	4c                   	dec    %esp
 100574d:	07                   	pop    %es
 100574e:	00 00                	add    %al,(%eax)
 1005750:	7a bb                	jp     100570d <kernel_main+0x118f>
 1005752:	ff                   	(bad)  
 1005753:	ff                   	(bad)  
 1005754:	3e 00 00             	add    %al,%ds:(%eax)
 1005757:	00 00                	add    %al,(%eax)
 1005759:	41                   	inc    %ecx
 100575a:	0e                   	push   %cs
 100575b:	08 85 02 42 0d 05    	or     %al,0x50d4202(%ebp)
 1005761:	7a c5                	jp     1005728 <kernel_main+0x11aa>
 1005763:	0c 04                	or     $0x4,%al
 1005765:	04 00                	add    $0x0,%al
 1005767:	00 1c 00             	add    %bl,(%eax,%eax,1)
 100576a:	00 00                	add    %al,(%eax)
 100576c:	6c                   	insb   (%dx),%es:(%edi)
 100576d:	07                   	pop    %es
 100576e:	00 00                	add    %al,(%eax)
 1005770:	98                   	cwtl   
 1005771:	bb ff ff 0b 00       	mov    $0xbffff,%ebx
 1005776:	00 00                	add    %al,(%eax)
 1005778:	00 41 0e             	add    %al,0xe(%ecx)
 100577b:	08 85 02 42 0d 05    	or     %al,0x50d4202(%ebp)
 1005781:	47                   	inc    %edi
 1005782:	c5 0c 04             	lds    (%esp,%eax,1),%ecx
 1005785:	04 00                	add    $0x0,%al
 1005787:	00 1c 00             	add    %bl,(%eax,%eax,1)
 100578a:	00 00                	add    %al,(%eax)
 100578c:	8c 07                	mov    %es,(%edi)
 100578e:	00 00                	add    %al,(%eax)
 1005790:	83 bb ff ff 0b 00 00 	cmpl   $0x0,0xbffff(%ebx)
 1005797:	00 00                	add    %al,(%eax)
 1005799:	41                   	inc    %ecx
 100579a:	0e                   	push   %cs
 100579b:	08 85 02 42 0d 05    	or     %al,0x50d4202(%ebp)
 10057a1:	47                   	inc    %edi
 10057a2:	c5 0c 04             	lds    (%esp,%eax,1),%ecx
 10057a5:	04 00                	add    $0x0,%al
 10057a7:	00 1c 00             	add    %bl,(%eax,%eax,1)
 10057aa:	00 00                	add    %al,(%eax)
 10057ac:	ac                   	lods   %ds:(%esi),%al
 10057ad:	07                   	pop    %es
 10057ae:	00 00                	add    %al,(%eax)
 10057b0:	6e                   	outsb  %ds:(%esi),(%dx)
 10057b1:	bb ff ff 00 02       	mov    $0x200ffff,%ebx
 10057b6:	00 00                	add    %al,(%eax)
 10057b8:	00 41 0e             	add    %al,0xe(%ecx)
 10057bb:	08 85 02 42 0d 05    	or     %al,0x50d4202(%ebp)
 10057c1:	03 fc                	add    %esp,%edi
 10057c3:	01 c5                	add    %eax,%ebp
 10057c5:	0c 04                	or     $0x4,%al
 10057c7:	04 1c                	add    $0x1c,%al
 10057c9:	00 00                	add    %al,(%eax)
 10057cb:	00 cc                	add    %cl,%ah
 10057cd:	07                   	pop    %es
 10057ce:	00 00                	add    %al,(%eax)
 10057d0:	4e                   	dec    %esi
 10057d1:	bd ff ff 21 00       	mov    $0x21ffff,%ebp
 10057d6:	00 00                	add    %al,(%eax)
 10057d8:	00 41 0e             	add    %al,0xe(%ecx)
 10057db:	08 85 02 42 0d 05    	or     %al,0x50d4202(%ebp)
 10057e1:	5d                   	pop    %ebp
 10057e2:	c5 0c 04             	lds    (%esp,%eax,1),%ecx
 10057e5:	04 00                	add    $0x0,%al
 10057e7:	00 1c 00             	add    %bl,(%eax,%eax,1)
 10057ea:	00 00                	add    %al,(%eax)
 10057ec:	ec                   	in     (%dx),%al
 10057ed:	07                   	pop    %es
 10057ee:	00 00                	add    %al,(%eax)
 10057f0:	4f                   	dec    %edi
 10057f1:	bd ff ff 72 00       	mov    $0x72ffff,%ebp
 10057f6:	00 00                	add    %al,(%eax)
 10057f8:	00 41 0e             	add    %al,0xe(%ecx)
 10057fb:	08 85 02 42 0d 05    	or     %al,0x50d4202(%ebp)
 1005801:	02 6e c5             	add    -0x3b(%esi),%ch
 1005804:	0c 04                	or     $0x4,%al
 1005806:	04 00                	add    $0x0,%al
 1005808:	1c 00                	sbb    $0x0,%al
 100580a:	00 00                	add    %al,(%eax)
 100580c:	0c 08                	or     $0x8,%al
 100580e:	00 00                	add    %al,(%eax)
 1005810:	a1 bd ff ff 9d       	mov    0x9dffffbd,%eax
 1005815:	00 00                	add    %al,(%eax)
 1005817:	00 00                	add    %al,(%eax)
 1005819:	41                   	inc    %ecx
 100581a:	0e                   	push   %cs
 100581b:	08 85 02 42 0d 05    	or     %al,0x50d4202(%ebp)
 1005821:	02 99 c5 0c 04 04    	add    0x4040cc5(%ecx),%bl
 1005827:	00 1c 00             	add    %bl,(%eax,%eax,1)
 100582a:	00 00                	add    %al,(%eax)
 100582c:	2c 08                	sub    $0x8,%al
 100582e:	00 00                	add    %al,(%eax)
 1005830:	1e                   	push   %ds
 1005831:	be ff ff 5f 00       	mov    $0x5fffff,%esi
 1005836:	00 00                	add    %al,(%eax)
 1005838:	00 41 0e             	add    %al,0xe(%ecx)
 100583b:	08 85 02 42 0d 05    	or     %al,0x50d4202(%ebp)
 1005841:	02 5b c5             	add    -0x3b(%ebx),%bl
 1005844:	0c 04                	or     $0x4,%al
 1005846:	04 00                	add    $0x0,%al
 1005848:	1c 00                	sbb    $0x0,%al
 100584a:	00 00                	add    %al,(%eax)
 100584c:	4c                   	dec    %esp
 100584d:	08 00                	or     %al,(%eax)
 100584f:	00 5d be             	add    %bl,-0x42(%ebp)
 1005852:	ff                   	(bad)  
 1005853:	ff 33                	pushl  (%ebx)
 1005855:	05 00 00 00 41       	add    $0x41000000,%eax
 100585a:	0e                   	push   %cs
 100585b:	08 85 02 42 0d 05    	or     %al,0x50d4202(%ebp)
 1005861:	03 2f                	add    (%edi),%ebp
 1005863:	05 c5 0c 04 04       	add    $0x4040cc5,%eax
 1005868:	1c 00                	sbb    $0x0,%al
 100586a:	00 00                	add    %al,(%eax)
 100586c:	6c                   	insb   (%dx),%es:(%edi)
 100586d:	08 00                	or     %al,(%eax)
 100586f:	00 70 c3             	add    %dh,-0x3d(%eax)
 1005872:	ff                   	(bad)  
 1005873:	ff 07                	incl   (%edi)
 1005875:	05 00 00 00 41       	add    $0x41000000,%eax
 100587a:	0e                   	push   %cs
 100587b:	08 85 02 42 0d 05    	or     %al,0x50d4202(%ebp)
 1005881:	03 03                	add    (%ebx),%eax
 1005883:	05 c5 0c 04 04       	add    $0x4040cc5,%eax
 1005888:	1c 00                	sbb    $0x0,%al
 100588a:	00 00                	add    %al,(%eax)
 100588c:	8c 08                	mov    %cs,(%eax)
 100588e:	00 00                	add    %al,(%eax)
 1005890:	57                   	push   %edi
 1005891:	c8 ff ff 12          	enter  $0xffff,$0x12
 1005895:	00 00                	add    %al,(%eax)
 1005897:	00 00                	add    %al,(%eax)
 1005899:	41                   	inc    %ecx
 100589a:	0e                   	push   %cs
 100589b:	08 85 02 42 0d 05    	or     %al,0x50d4202(%ebp)
 10058a1:	4e                   	dec    %esi
 10058a2:	c5 0c 04             	lds    (%esp,%eax,1),%ecx
 10058a5:	04 00                	add    $0x0,%al
 10058a7:	00 1c 00             	add    %bl,(%eax,%eax,1)
 10058aa:	00 00                	add    %al,(%eax)
 10058ac:	ac                   	lods   %ds:(%esi),%al
 10058ad:	08 00                	or     %al,(%eax)
 10058af:	00 49 c8             	add    %cl,-0x38(%ecx)
 10058b2:	ff                   	(bad)  
 10058b3:	ff 14 00             	call   *(%eax,%eax,1)
 10058b6:	00 00                	add    %al,(%eax)
 10058b8:	00 41 0e             	add    %al,0xe(%ecx)
 10058bb:	08 85 02 42 0d 05    	or     %al,0x50d4202(%ebp)
 10058c1:	50                   	push   %eax
 10058c2:	c5 0c 04             	lds    (%esp,%eax,1),%ecx
 10058c5:	04 00                	add    $0x0,%al
 10058c7:	00 1c 00             	add    %bl,(%eax,%eax,1)
 10058ca:	00 00                	add    %al,(%eax)
 10058cc:	cc                   	int3   
 10058cd:	08 00                	or     %al,(%eax)
 10058cf:	00 3d c8 ff ff 30    	add    %bh,0x30ffffc8
 10058d5:	00 00                	add    %al,(%eax)
 10058d7:	00 00                	add    %al,(%eax)
 10058d9:	41                   	inc    %ecx
 10058da:	0e                   	push   %cs
 10058db:	08 85 02 42 0d 05    	or     %al,0x50d4202(%ebp)
 10058e1:	6c                   	insb   (%dx),%es:(%edi)
 10058e2:	c5 0c 04             	lds    (%esp,%eax,1),%ecx
 10058e5:	04 00                	add    $0x0,%al
 10058e7:	00 1c 00             	add    %bl,(%eax,%eax,1)
 10058ea:	00 00                	add    %al,(%eax)
 10058ec:	ec                   	in     (%dx),%al
 10058ed:	08 00                	or     %al,(%eax)
 10058ef:	00 4d c8             	add    %cl,-0x38(%ebp)
 10058f2:	ff                   	(bad)  
 10058f3:	ff 40 00             	incl   0x0(%eax)
 10058f6:	00 00                	add    %al,(%eax)
 10058f8:	00 41 0e             	add    %al,0xe(%ecx)
 10058fb:	08 85 02 42 0d 05    	or     %al,0x50d4202(%ebp)
 1005901:	7c c5                	jl     10058c8 <kernel_main+0x134a>
 1005903:	0c 04                	or     $0x4,%al
 1005905:	04 00                	add    $0x0,%al
 1005907:	00 1c 00             	add    %bl,(%eax,%eax,1)
 100590a:	00 00                	add    %al,(%eax)
 100590c:	0c 09                	or     $0x9,%al
 100590e:	00 00                	add    %al,(%eax)
 1005910:	6d                   	insl   (%dx),%es:(%edi)
 1005911:	c8 ff ff 0a          	enter  $0xffff,$0xa
 1005915:	00 00                	add    %al,(%eax)
 1005917:	00 00                	add    %al,(%eax)
 1005919:	41                   	inc    %ecx
 100591a:	0e                   	push   %cs
 100591b:	08 85 02 42 0d 05    	or     %al,0x50d4202(%ebp)
 1005921:	46                   	inc    %esi
 1005922:	c5 0c 04             	lds    (%esp,%eax,1),%ecx
 1005925:	04 00                	add    $0x0,%al
 1005927:	00 1c 00             	add    %bl,(%eax,%eax,1)
 100592a:	00 00                	add    %al,(%eax)
 100592c:	2c 09                	sub    $0x9,%al
 100592e:	00 00                	add    %al,(%eax)
 1005930:	57                   	push   %edi
 1005931:	c8 ff ff 05          	enter  $0xffff,$0x5
 1005935:	00 00                	add    %al,(%eax)
 1005937:	00 00                	add    %al,(%eax)
 1005939:	41                   	inc    %ecx
 100593a:	0e                   	push   %cs
 100593b:	08 85 02 42 0d 05    	or     %al,0x50d4202(%ebp)
 1005941:	41                   	inc    %ecx
 1005942:	c5 0c 04             	lds    (%esp,%eax,1),%ecx
 1005945:	04 00                	add    $0x0,%al
 1005947:	00 1c 00             	add    %bl,(%eax,%eax,1)
 100594a:	00 00                	add    %al,(%eax)
 100594c:	4c                   	dec    %esp
 100594d:	09 00                	or     %eax,(%eax)
 100594f:	00 3c c8             	add    %bh,(%eax,%ecx,8)
 1005952:	ff                   	(bad)  
 1005953:	ff 05 00 00 00 00    	incl   0x0
 1005959:	41                   	inc    %ecx
 100595a:	0e                   	push   %cs
 100595b:	08 85 02 42 0d 05    	or     %al,0x50d4202(%ebp)
 1005961:	41                   	inc    %ecx
 1005962:	c5 0c 04             	lds    (%esp,%eax,1),%ecx
 1005965:	04 00                	add    $0x0,%al
 1005967:	00 1c 00             	add    %bl,(%eax,%eax,1)
 100596a:	00 00                	add    %al,(%eax)
 100596c:	6c                   	insb   (%dx),%es:(%edi)
 100596d:	09 00                	or     %eax,(%eax)
 100596f:	00 21                	add    %ah,(%ecx)
 1005971:	c8 ff ff 72          	enter  $0xffff,$0x72
 1005975:	01 00                	add    %eax,(%eax)
 1005977:	00 00                	add    %al,(%eax)
 1005979:	41                   	inc    %ecx
 100597a:	0e                   	push   %cs
 100597b:	08 85 02 42 0d 05    	or     %al,0x50d4202(%ebp)
 1005981:	03 6e 01             	add    0x1(%esi),%ebp
 1005984:	c5 0c 04             	lds    (%esp,%eax,1),%ecx
 1005987:	04 1c                	add    $0x1c,%al
 1005989:	00 00                	add    %al,(%eax)
 100598b:	00 8c 09 00 00 73 c9 	add    %cl,-0x368d0000(%ecx,%ecx,1)
 1005992:	ff                   	(bad)  
 1005993:	ff c7                	inc    %edi
 1005995:	00 00                	add    %al,(%eax)
 1005997:	00 00                	add    %al,(%eax)
 1005999:	41                   	inc    %ecx
 100599a:	0e                   	push   %cs
 100599b:	08 85 02 42 0d 05    	or     %al,0x50d4202(%ebp)
 10059a1:	02 c3                	add    %bl,%al
 10059a3:	c5 0c 04             	lds    (%esp,%eax,1),%ecx
 10059a6:	04 00                	add    $0x0,%al
 10059a8:	1c 00                	sbb    $0x0,%al
 10059aa:	00 00                	add    %al,(%eax)
 10059ac:	ac                   	lods   %ds:(%esi),%al
 10059ad:	09 00                	or     %eax,(%eax)
 10059af:	00 1a                	add    %bl,(%edx)
 10059b1:	ca ff ff             	lret   $0xffff
 10059b4:	73 02                	jae    10059b8 <kernel_main+0x143a>
 10059b6:	00 00                	add    %al,(%eax)
 10059b8:	00 41 0e             	add    %al,0xe(%ecx)
 10059bb:	08 85 02 42 0d 05    	or     %al,0x50d4202(%ebp)
 10059c1:	03 6f 02             	add    0x2(%edi),%ebp
 10059c4:	c5 0c 04             	lds    (%esp,%eax,1),%ecx
 10059c7:	04 1c                	add    $0x1c,%al
 10059c9:	00 00                	add    %al,(%eax)
 10059cb:	00 cc                	add    %cl,%ah
 10059cd:	09 00                	or     %eax,(%eax)
 10059cf:	00 6d cc             	add    %ch,-0x34(%ebp)
 10059d2:	ff                   	(bad)  
 10059d3:	ff 8f 00 00 00 00    	decl   0x0(%edi)
 10059d9:	41                   	inc    %ecx
 10059da:	0e                   	push   %cs
 10059db:	08 85 02 42 0d 05    	or     %al,0x50d4202(%ebp)
 10059e1:	02 8b c5 0c 04 04    	add    0x4040cc5(%ebx),%cl
 10059e7:	00 2c 00             	add    %ch,(%eax,%eax,1)
 10059ea:	00 00                	add    %al,(%eax)
 10059ec:	ec                   	in     (%dx),%al
 10059ed:	09 00                	or     %eax,(%eax)
 10059ef:	00 dc                	add    %bl,%ah
 10059f1:	cc                   	int3   
 10059f2:	ff                   	(bad)  
 10059f3:	ff 8d 01 00 00 00    	decl   0x1(%ebp)
 10059f9:	41                   	inc    %ecx
 10059fa:	0e                   	push   %cs
 10059fb:	08 85 02 42 0d 05    	or     %al,0x50d4202(%ebp)
 1005a01:	46                   	inc    %esi
 1005a02:	87 03                	xchg   %eax,(%ebx)
 1005a04:	86 04 83             	xchg   %al,(%ebx,%eax,4)
 1005a07:	05 03 80 01 c3       	add    $0xc3018003,%eax
 1005a0c:	41                   	inc    %ecx
 1005a0d:	c6 41 c7 41          	movb   $0x41,-0x39(%ecx)
 1005a11:	c5 0c 04             	lds    (%esp,%eax,1),%ecx
 1005a14:	04 00                	add    $0x0,%al
 1005a16:	00 00                	add    %al,(%eax)
 1005a18:	1c 00                	sbb    $0x0,%al
 1005a1a:	00 00                	add    %al,(%eax)
 1005a1c:	1c 0a                	sbb    $0xa,%al
 1005a1e:	00 00                	add    %al,(%eax)
 1005a20:	39 ce                	cmp    %ecx,%esi
 1005a22:	ff                   	(bad)  
 1005a23:	ff 2d 03 00 00 00    	ljmp   *0x3
 1005a29:	41                   	inc    %ecx
 1005a2a:	0e                   	push   %cs
 1005a2b:	08 85 02 42 0d 05    	or     %al,0x50d4202(%ebp)
 1005a31:	03 29                	add    (%ecx),%ebp
 1005a33:	03 c5                	add    %ebp,%eax
 1005a35:	0c 04                	or     $0x4,%al
 1005a37:	04 1c                	add    $0x1c,%al
 1005a39:	00 00                	add    %al,(%eax)
 1005a3b:	00 3c 0a             	add    %bh,(%edx,%ecx,1)
 1005a3e:	00 00                	add    %al,(%eax)
 1005a40:	46                   	inc    %esi
 1005a41:	d1 ff                	sar    %edi
 1005a43:	ff                   	(bad)  
 1005a44:	ea 00 00 00 00 41 0e 	ljmp   $0xe41,$0x0
 1005a4b:	08 85 02 42 0d 05    	or     %al,0x50d4202(%ebp)
 1005a51:	02 e6                	add    %dh,%ah
 1005a53:	c5 0c 04             	lds    (%esp,%eax,1),%ecx
 1005a56:	04 00                	add    $0x0,%al
 1005a58:	20 00                	and    %al,(%eax)
 1005a5a:	00 00                	add    %al,(%eax)
 1005a5c:	5c                   	pop    %esp
 1005a5d:	0a 00                	or     (%eax),%al
 1005a5f:	00 10                	add    %dl,(%eax)
 1005a61:	d2 ff                	sar    %cl,%bh
 1005a63:	ff                   	(bad)  
 1005a64:	79 05                	jns    1005a6b <kernel_main+0x14ed>
 1005a66:	00 00                	add    %al,(%eax)
 1005a68:	00 41 0e             	add    %al,0xe(%ecx)
 1005a6b:	08 85 02 42 0d 05    	or     %al,0x50d4202(%ebp)
 1005a71:	44                   	inc    %esp
 1005a72:	83 03 03             	addl   $0x3,(%ebx)
 1005a75:	71 05                	jno    1005a7c <kernel_main+0x14fe>
 1005a77:	c5 c3 0c             	(bad)  
 1005a7a:	04 04                	add    $0x4,%al
 1005a7c:	1c 00                	sbb    $0x0,%al
 1005a7e:	00 00                	add    %al,(%eax)
 1005a80:	80 0a 00             	orb    $0x0,(%edx)
 1005a83:	00 65 d7             	add    %ah,-0x29(%ebp)
 1005a86:	ff                   	(bad)  
 1005a87:	ff 4a 00             	decl   0x0(%edx)
 1005a8a:	00 00                	add    %al,(%eax)
 1005a8c:	00 41 0e             	add    %al,0xe(%ecx)
 1005a8f:	08 85 02 42 0d 05    	or     %al,0x50d4202(%ebp)
 1005a95:	02 46 c5             	add    -0x3b(%esi),%al
 1005a98:	0c 04                	or     $0x4,%al
 1005a9a:	04 00                	add    $0x0,%al
 1005a9c:	1c 00                	sbb    $0x0,%al
 1005a9e:	00 00                	add    %al,(%eax)
 1005aa0:	a0 0a 00 00 8f       	mov    0x8f00000a,%al
 1005aa5:	d7                   	xlat   %ds:(%ebx)
 1005aa6:	ff                   	(bad)  
 1005aa7:	ff                   	(bad)  
 1005aa8:	7f 00                	jg     1005aaa <kernel_main+0x152c>
 1005aaa:	00 00                	add    %al,(%eax)
 1005aac:	00 41 0e             	add    %al,0xe(%ecx)
 1005aaf:	08 85 02 42 0d 05    	or     %al,0x50d4202(%ebp)
 1005ab5:	02 7b c5             	add    -0x3b(%ebx),%bh
 1005ab8:	0c 04                	or     $0x4,%al
 1005aba:	04 00                	add    $0x0,%al
 1005abc:	1c 00                	sbb    $0x0,%al
 1005abe:	00 00                	add    %al,(%eax)
 1005ac0:	c0 0a 00             	rorb   $0x0,(%edx)
 1005ac3:	00 ee                	add    %ch,%dh
 1005ac5:	d7                   	xlat   %ds:(%ebx)
 1005ac6:	ff                   	(bad)  
 1005ac7:	ff                   	(bad)  
 1005ac8:	38 00                	cmp    %al,(%eax)
 1005aca:	00 00                	add    %al,(%eax)
 1005acc:	00 41 0e             	add    %al,0xe(%ecx)
 1005acf:	08 85 02 42 0d 05    	or     %al,0x50d4202(%ebp)
 1005ad5:	74 c5                	je     1005a9c <kernel_main+0x151e>
 1005ad7:	0c 04                	or     $0x4,%al
 1005ad9:	04 00                	add    $0x0,%al
 1005adb:	00 1c 00             	add    %bl,(%eax,%eax,1)
 1005ade:	00 00                	add    %al,(%eax)
 1005ae0:	e0 0a                	loopne 1005aec <kernel_main+0x156e>
 1005ae2:	00 00                	add    %al,(%eax)
 1005ae4:	06                   	push   %es
 1005ae5:	d8 ff                	fdivr  %st(7),%st
 1005ae7:	ff 16                	call   *(%esi)
 1005ae9:	00 00                	add    %al,(%eax)
 1005aeb:	00 00                	add    %al,(%eax)
 1005aed:	41                   	inc    %ecx
 1005aee:	0e                   	push   %cs
 1005aef:	08 85 02 42 0d 05    	or     %al,0x50d4202(%ebp)
 1005af5:	52                   	push   %edx
 1005af6:	c5 0c 04             	lds    (%esp,%eax,1),%ecx
 1005af9:	04 00                	add    $0x0,%al
 1005afb:	00 1c 00             	add    %bl,(%eax,%eax,1)
 1005afe:	00 00                	add    %al,(%eax)
 1005b00:	00 0b                	add    %cl,(%ebx)
 1005b02:	00 00                	add    %al,(%eax)
 1005b04:	fc                   	cld    
 1005b05:	d7                   	xlat   %ds:(%ebx)
 1005b06:	ff                   	(bad)  
 1005b07:	ff 56 00             	call   *0x0(%esi)
 1005b0a:	00 00                	add    %al,(%eax)
 1005b0c:	00 41 0e             	add    %al,0xe(%ecx)
 1005b0f:	08 85 02 42 0d 05    	or     %al,0x50d4202(%ebp)
 1005b15:	02 52 c5             	add    -0x3b(%edx),%dl
 1005b18:	0c 04                	or     $0x4,%al
 1005b1a:	04 00                	add    $0x0,%al
 1005b1c:	1c 00                	sbb    $0x0,%al
 1005b1e:	00 00                	add    %al,(%eax)
 1005b20:	20 0b                	and    %cl,(%ebx)
 1005b22:	00 00                	add    %al,(%eax)
 1005b24:	32 d8                	xor    %al,%bl
 1005b26:	ff                   	(bad)  
 1005b27:	ff 69 01             	ljmp   *0x1(%ecx)
 1005b2a:	00 00                	add    %al,(%eax)
 1005b2c:	00 41 0e             	add    %al,0xe(%ecx)
 1005b2f:	08 85 02 42 0d 05    	or     %al,0x50d4202(%ebp)
 1005b35:	03 65 01             	add    0x1(%ebp),%esp
 1005b38:	c5 0c 04             	lds    (%esp,%eax,1),%ecx
 1005b3b:	04 20                	add    $0x20,%al
 1005b3d:	00 00                	add    %al,(%eax)
 1005b3f:	00 40 0b             	add    %al,0xb(%eax)
 1005b42:	00 00                	add    %al,(%eax)
 1005b44:	7b d9                	jnp    1005b1f <kernel_main+0x15a1>
 1005b46:	ff                   	(bad)  
 1005b47:	ff e7                	jmp    *%edi
 1005b49:	00 00                	add    %al,(%eax)
 1005b4b:	00 00                	add    %al,(%eax)
 1005b4d:	41                   	inc    %ecx
 1005b4e:	0e                   	push   %cs
 1005b4f:	08 85 02 42 0d 05    	or     %al,0x50d4202(%ebp)
 1005b55:	44                   	inc    %esp
 1005b56:	83 03 02             	addl   $0x2,(%ebx)
 1005b59:	df c5                	ffreep %st(5)
 1005b5b:	c3                   	ret    
 1005b5c:	0c 04                	or     $0x4,%al
 1005b5e:	04 00                	add    $0x0,%al
 1005b60:	1c 00                	sbb    $0x0,%al
 1005b62:	00 00                	add    %al,(%eax)
 1005b64:	64 0b 00             	or     %fs:(%eax),%eax
 1005b67:	00 3e                	add    %bh,(%esi)
 1005b69:	da ff                	(bad)  
 1005b6b:	ff e2                	jmp    *%edx
 1005b6d:	00 00                	add    %al,(%eax)
 1005b6f:	00 00                	add    %al,(%eax)
 1005b71:	41                   	inc    %ecx
 1005b72:	0e                   	push   %cs
 1005b73:	08 85 02 42 0d 05    	or     %al,0x50d4202(%ebp)
 1005b79:	02 de                	add    %dh,%bl
 1005b7b:	c5 0c 04             	lds    (%esp,%eax,1),%ecx
 1005b7e:	04 00                	add    $0x0,%al
 1005b80:	2c 00                	sub    $0x0,%al
 1005b82:	00 00                	add    %al,(%eax)
 1005b84:	84 0b                	test   %cl,(%ebx)
 1005b86:	00 00                	add    %al,(%eax)
 1005b88:	00 db                	add    %bl,%bl
 1005b8a:	ff                   	(bad)  
 1005b8b:	ff 88 03 00 00 00    	decl   0x3(%eax)
 1005b91:	41                   	inc    %ecx
 1005b92:	0e                   	push   %cs
 1005b93:	08 85 02 42 0d 05    	or     %al,0x50d4202(%ebp)
 1005b99:	46                   	inc    %esi
 1005b9a:	87 03                	xchg   %eax,(%ebx)
 1005b9c:	86 04 83             	xchg   %al,(%ebx,%eax,4)
 1005b9f:	05 03 7b 03 c3       	add    $0xc3037b03,%eax
 1005ba4:	41                   	inc    %ecx
 1005ba5:	c6 41 c7 41          	movb   $0x41,-0x39(%ecx)
 1005ba9:	c5 0c 04             	lds    (%esp,%eax,1),%ecx
 1005bac:	04 00                	add    $0x0,%al
 1005bae:	00 00                	add    %al,(%eax)
 1005bb0:	1c 00                	sbb    $0x0,%al
 1005bb2:	00 00                	add    %al,(%eax)
 1005bb4:	b4 0b                	mov    $0xb,%ah
 1005bb6:	00 00                	add    %al,(%eax)
 1005bb8:	58                   	pop    %eax
 1005bb9:	de ff                	fdivrp %st,%st(7)
 1005bbb:	ff 0e                	decl   (%esi)
 1005bbd:	00 00                	add    %al,(%eax)
 1005bbf:	00 00                	add    %al,(%eax)
 1005bc1:	41                   	inc    %ecx
 1005bc2:	0e                   	push   %cs
 1005bc3:	08 85 02 42 0d 05    	or     %al,0x50d4202(%ebp)
 1005bc9:	4a                   	dec    %edx
 1005bca:	c5 0c 04             	lds    (%esp,%eax,1),%ecx
 1005bcd:	04 00                	add    $0x0,%al
 1005bcf:	00 1c 00             	add    %bl,(%eax,%eax,1)
 1005bd2:	00 00                	add    %al,(%eax)
 1005bd4:	d4 0b                	aam    $0xb
 1005bd6:	00 00                	add    %al,(%eax)
 1005bd8:	46                   	inc    %esi
 1005bd9:	de ff                	fdivrp %st,%st(7)
 1005bdb:	ff                   	(bad)  
 1005bdc:	7e 00                	jle    1005bde <kernel_main+0x1660>
 1005bde:	00 00                	add    %al,(%eax)
 1005be0:	00 41 0e             	add    %al,0xe(%ecx)
 1005be3:	08 85 02 42 0d 05    	or     %al,0x50d4202(%ebp)
 1005be9:	02 7a c5             	add    -0x3b(%edx),%bh
 1005bec:	0c 04                	or     $0x4,%al
 1005bee:	04 00                	add    $0x0,%al
 1005bf0:	1c 00                	sbb    $0x0,%al
 1005bf2:	00 00                	add    %al,(%eax)
 1005bf4:	f4                   	hlt    
 1005bf5:	0b 00                	or     (%eax),%eax
 1005bf7:	00 a4 de ff ff 16 00 	add    %ah,0x16ffff(%esi,%ebx,8)
 1005bfe:	00 00                	add    %al,(%eax)
 1005c00:	00 41 0e             	add    %al,0xe(%ecx)
 1005c03:	08 85 02 42 0d 05    	or     %al,0x50d4202(%ebp)
 1005c09:	52                   	push   %edx
 1005c0a:	c5 0c 04             	lds    (%esp,%eax,1),%ecx
 1005c0d:	04 00                	add    $0x0,%al
 1005c0f:	00 1c 00             	add    %bl,(%eax,%eax,1)
 1005c12:	00 00                	add    %al,(%eax)
 1005c14:	14 0c                	adc    $0xc,%al
 1005c16:	00 00                	add    %al,(%eax)
 1005c18:	9a de ff ff 22 00 00 	lcall  $0x0,$0x22ffffde
 1005c1f:	00 00                	add    %al,(%eax)
 1005c21:	41                   	inc    %ecx
 1005c22:	0e                   	push   %cs
 1005c23:	08 85 02 42 0d 05    	or     %al,0x50d4202(%ebp)
 1005c29:	5e                   	pop    %esi
 1005c2a:	c5 0c 04             	lds    (%esp,%eax,1),%ecx
 1005c2d:	04 00                	add    $0x0,%al
 1005c2f:	00 1c 00             	add    %bl,(%eax,%eax,1)
 1005c32:	00 00                	add    %al,(%eax)
 1005c34:	34 0c                	xor    $0xc,%al
 1005c36:	00 00                	add    %al,(%eax)
 1005c38:	9c                   	pushf  
 1005c39:	de ff                	fdivrp %st,%st(7)
 1005c3b:	ff 65 01             	jmp    *0x1(%ebp)
 1005c3e:	00 00                	add    %al,(%eax)
 1005c40:	00 41 0e             	add    %al,0xe(%ecx)
 1005c43:	08 85 02 42 0d 05    	or     %al,0x50d4202(%ebp)
 1005c49:	03 61 01             	add    0x1(%ecx),%esp
 1005c4c:	c5 0c 04             	lds    (%esp,%eax,1),%ecx
 1005c4f:	04 1c                	add    $0x1c,%al
 1005c51:	00 00                	add    %al,(%eax)
 1005c53:	00 54 0c 00          	add    %dl,0x0(%esp,%ecx,1)
 1005c57:	00 e1                	add    %ah,%cl
 1005c59:	df ff                	(bad)  
 1005c5b:	ff 84 04 00 00 00 41 	incl   0x41000000(%esp,%eax,1)
 1005c62:	0e                   	push   %cs
 1005c63:	08 85 02 42 0d 05    	or     %al,0x50d4202(%ebp)
 1005c69:	03 80 04 c5 0c 04    	add    0x40cc504(%eax),%eax
 1005c6f:	04 1c                	add    $0x1c,%al
 1005c71:	00 00                	add    %al,(%eax)
 1005c73:	00 74 0c 00          	add    %dh,0x0(%esp,%ecx,1)
 1005c77:	00 45 e4             	add    %al,-0x1c(%ebp)
 1005c7a:	ff                   	(bad)  
 1005c7b:	ff 9d 00 00 00 00    	lcall  *0x0(%ebp)
 1005c81:	41                   	inc    %ecx
 1005c82:	0e                   	push   %cs
 1005c83:	08 85 02 42 0d 05    	or     %al,0x50d4202(%ebp)
 1005c89:	02 99 c5 0c 04 04    	add    0x4040cc5(%ecx),%bl
 1005c8f:	00 18                	add    %bl,(%eax)
 1005c91:	00 00                	add    %al,(%eax)
 1005c93:	00 94 0c 00 00 c2 e4 	add    %dl,-0x1b3e0000(%esp,%ecx,1)
 1005c9a:	ff                   	(bad)  
 1005c9b:	ff 52 02             	call   *0x2(%edx)
 1005c9e:	00 00                	add    %al,(%eax)
 1005ca0:	00 41 0e             	add    %al,0xe(%ecx)
 1005ca3:	08 85 02 42 0d 05    	or     %al,0x50d4202(%ebp)
 1005ca9:	00 00                	add    %al,(%eax)
 1005cab:	00 1c 00             	add    %bl,(%eax,%eax,1)
 1005cae:	00 00                	add    %al,(%eax)
 1005cb0:	b0 0c                	mov    $0xc,%al
 1005cb2:	00 00                	add    %al,(%eax)
 1005cb4:	f8                   	clc    
 1005cb5:	e6 ff                	out    %al,$0xff
 1005cb7:	ff 12                	call   *(%edx)
 1005cb9:	00 00                	add    %al,(%eax)
 1005cbb:	00 00                	add    %al,(%eax)
 1005cbd:	41                   	inc    %ecx
 1005cbe:	0e                   	push   %cs
 1005cbf:	08 85 02 42 0d 05    	or     %al,0x50d4202(%ebp)
 1005cc5:	4e                   	dec    %esi
 1005cc6:	c5 0c 04             	lds    (%esp,%eax,1),%ecx
 1005cc9:	04 00                	add    $0x0,%al
 1005ccb:	00 18                	add    %bl,(%eax)
 1005ccd:	00 00                	add    %al,(%eax)
 1005ccf:	00 d0                	add    %dl,%al
 1005cd1:	0c 00                	or     $0x0,%al
 1005cd3:	00 ea                	add    %ch,%dl
 1005cd5:	e6 ff                	out    %al,$0xff
 1005cd7:	ff 12                	call   *(%edx)
 1005cd9:	00 00                	add    %al,(%eax)
 1005cdb:	00 00                	add    %al,(%eax)
 1005cdd:	41                   	inc    %ecx
 1005cde:	0e                   	push   %cs
 1005cdf:	08 85 02 42 0d 05    	or     %al,0x50d4202(%ebp)
 1005ce5:	00 00                	add    %al,(%eax)
 1005ce7:	00 18                	add    %bl,(%eax)
 1005ce9:	00 00                	add    %al,(%eax)
 1005ceb:	00 ec                	add    %ch,%ah
 1005ced:	0c 00                	or     $0x0,%al
 1005cef:	00 e0                	add    %ah,%al
 1005cf1:	e6 ff                	out    %al,$0xff
 1005cf3:	ff 58 01             	lcall  *0x1(%eax)
 1005cf6:	00 00                	add    %al,(%eax)
 1005cf8:	00 41 0e             	add    %al,0xe(%ecx)
 1005cfb:	08 85 02 42 0d 05    	or     %al,0x50d4202(%ebp)
 1005d01:	00 00                	add    %al,(%eax)
 1005d03:	00 18                	add    %bl,(%eax)
 1005d05:	00 00                	add    %al,(%eax)
 1005d07:	00 08                	add    %cl,(%eax)
 1005d09:	0d 00 00 1c e8       	or     $0xe81c0000,%eax
 1005d0e:	ff                   	(bad)  
 1005d0f:	ff 56 00             	call   *0x0(%esi)
 1005d12:	00 00                	add    %al,(%eax)
 1005d14:	00 41 0e             	add    %al,0xe(%ecx)
 1005d17:	08 85 02 42 0d 05    	or     %al,0x50d4202(%ebp)
 1005d1d:	00 00                	add    %al,(%eax)
 1005d1f:	00 1c 00             	add    %bl,(%eax,%eax,1)
 1005d22:	00 00                	add    %al,(%eax)
 1005d24:	24 0d                	and    $0xd,%al
 1005d26:	00 00                	add    %al,(%eax)
 1005d28:	56                   	push   %esi
 1005d29:	e8 ff ff 59 00       	call   15a5d2d <__end+0x597f4d>
 1005d2e:	00 00                	add    %al,(%eax)
 1005d30:	00 41 0e             	add    %al,0xe(%ecx)
 1005d33:	08 85 02 42 0d 05    	or     %al,0x50d4202(%ebp)
 1005d39:	02 55 c5             	add    -0x3b(%ebp),%dl
 1005d3c:	0c 04                	or     $0x4,%al
 1005d3e:	04 00                	add    $0x0,%al

Disassembly of section .data:

01005d40 <BGMM>:
 1005d40:	00 00                	add    %al,(%eax)
	...

01005d44 <ELF_IDENT>:
 1005d44:	7f 45                	jg     1005d8b <ELF_IDENT+0x47>
 1005d46:	4c                   	dec    %esp
 1005d47:	46                   	inc    %esi
 1005d48:	00 00                	add    %al,(%eax)
 1005d4a:	00 00                	add    %al,(%eax)
 1005d4c:	0a 0a                	or     (%edx),%cl
 1005d4e:	0a 09                	or     (%ecx),%cl
 1005d50:	3d 3d 3d 3d 3d       	cmp    $0x3d3d3d3d,%eax
 1005d55:	3d 3d 3d 3d 3d       	cmp    $0x3d3d3d3d,%eax
 1005d5a:	3d 3d 3d 3d 3d       	cmp    $0x3d3d3d3d,%eax
 1005d5f:	3d 3d 3d 3d 3d       	cmp    $0x3d3d3d3d,%eax
 1005d64:	3d 3d 3d 3d 3d       	cmp    $0x3d3d3d3d,%eax
 1005d69:	20 43 6f             	and    %al,0x6f(%ebx)
 1005d6c:	70 79                	jo     1005de7 <ELF_IDENT+0xa3>
 1005d6e:	72 61                	jb     1005dd1 <ELF_IDENT+0x8d>
 1005d70:	74 69                	je     1005ddb <ELF_IDENT+0x97>
 1005d72:	6e                   	outsb  %ds:(%esi),(%dx)
 1005d73:	67 20 3d             	and    %bh,(%di)
 1005d76:	3d 3d 3d 3d 3d       	cmp    $0x3d3d3d3d,%eax
 1005d7b:	3d 3d 3d 3d 3d       	cmp    $0x3d3d3d3d,%eax
 1005d80:	3d 3d 3d 3d 3d       	cmp    $0x3d3d3d3d,%eax
 1005d85:	3d 3d 3d 3d 3d       	cmp    $0x3d3d3d3d,%eax
 1005d8a:	3d 3d 3d 0a 00       	cmp    $0xa3d3d,%eax
 1005d8f:	09 7c 09 09          	or     %edi,0x9(%ecx,%ecx,1)
 1005d93:	09 09                	or     %ecx,(%ecx)
 1005d95:	09 09                	or     %ecx,(%ecx)
 1005d97:	7c 0a                	jl     1005da3 <ELF_IDENT+0x5f>
 1005d99:	00 00                	add    %al,(%eax)
 1005d9b:	00 09                	add    %cl,(%ecx)
 1005d9d:	3d 3d 3d 3d 3d       	cmp    $0x3d3d3d3d,%eax
 1005da2:	3d 3d 3d 3d 3d       	cmp    $0x3d3d3d3d,%eax
 1005da7:	3d 3d 3d 3d 3d       	cmp    $0x3d3d3d3d,%eax
 1005dac:	3d 3d 3d 3d 3d       	cmp    $0x3d3d3d3d,%eax
 1005db1:	3d 3d 3d 3d 3d       	cmp    $0x3d3d3d3d,%eax
 1005db6:	3d 3d 3d 3d 3d       	cmp    $0x3d3d3d3d,%eax
 1005dbb:	3d 3d 3d 3d 3d       	cmp    $0x3d3d3d3d,%eax
 1005dc0:	3d 3d 3d 3d 3d       	cmp    $0x3d3d3d3d,%eax
 1005dc5:	3d 3d 3d 3d 3d       	cmp    $0x3d3d3d3d,%eax
 1005dca:	3d 3d 3d 3d 3d       	cmp    $0x3d3d3d3d,%eax
 1005dcf:	3d 3d 3d 3d 3d       	cmp    $0x3d3d3d3d,%eax
 1005dd4:	3d 3d 3d 3d 3d       	cmp    $0x3d3d3d3d,%eax
 1005dd9:	3d 0a 00 09 50       	cmp    $0x5009000a,%eax
 1005dde:	72 65                	jb     1005e45 <ELF_IDENT+0x101>
 1005de0:	73 73                	jae    1005e55 <ELF_IDENT+0x111>
 1005de2:	20 61 6e             	and    %ah,0x6e(%ecx)
 1005de5:	79 20                	jns    1005e07 <ELF_IDENT+0xc3>
 1005de7:	6b 65 79 20          	imul   $0x20,0x79(%ebp),%esp
 1005deb:	74 6f                	je     1005e5c <ELF_IDENT+0x118>
 1005ded:	20 43 6f             	and    %al,0x6f(%ebx)
 1005df0:	6e                   	outsb  %ds:(%esi),(%dx)
 1005df1:	74 69                	je     1005e5c <ELF_IDENT+0x118>
 1005df3:	6e                   	outsb  %ds:(%esi),(%dx)
 1005df4:	75 65                	jne    1005e5b <ELF_IDENT+0x117>
 1005df6:	09 09                	or     %ecx,(%ecx)
 1005df8:	09 28                	or     %ebp,(%eax)
 1005dfa:	63 29                	arpl   %bp,(%ecx)
 1005dfc:	20 32                	and    %dh,(%edx)
 1005dfe:	30 32                	xor    %dh,(%edx)
 1005e00:	30 00                	xor    %al,(%eax)
 1005e02:	4e                   	dec    %esi
 1005e03:	55                   	push   %ebp
 1005e04:	4c                   	dec    %esp
 1005e05:	4c                   	dec    %esp
 1005e06:	00 0a                	add    %cl,(%edx)
 1005e08:	49                   	dec    %ecx
 1005e09:	6e                   	outsb  %ds:(%esi),(%dx)
 1005e0a:	74 65                	je     1005e71 <ELF_IDENT+0x12d>
 1005e0c:	72 72                	jb     1005e80 <ELF_IDENT+0x13c>
 1005e0e:	75 70                	jne    1005e80 <ELF_IDENT+0x13c>
 1005e10:	74 20                	je     1005e32 <ELF_IDENT+0xee>
 1005e12:	3a 30                	cmp    (%eax),%dh
 1005e14:	09 20                	or     %esp,(%eax)
 1005e16:	23 44 69 76          	and    0x76(%ecx,%ebp,2),%eax
 1005e1a:	20 45 72             	and    %al,0x72(%ebp)
 1005e1d:	72 6f                	jb     1005e8e <ELF_IDENT+0x14a>
 1005e1f:	72 0a                	jb     1005e2b <ELF_IDENT+0xe7>
 1005e21:	00 0a                	add    %cl,(%edx)
 1005e23:	49                   	dec    %ecx
 1005e24:	6e                   	outsb  %ds:(%esi),(%dx)
 1005e25:	74 65                	je     1005e8c <ELF_IDENT+0x148>
 1005e27:	72 72                	jb     1005e9b <ELF_IDENT+0x157>
 1005e29:	75 70                	jne    1005e9b <ELF_IDENT+0x157>
 1005e2b:	74 20                	je     1005e4d <ELF_IDENT+0x109>
 1005e2d:	3a 31                	cmp    (%ecx),%dh
 1005e2f:	09 20                	or     %esp,(%eax)
 1005e31:	23 44 65 62          	and    0x62(%ebp,%eiz,2),%eax
 1005e35:	75 67                	jne    1005e9e <ELF_IDENT+0x15a>
 1005e37:	0a 00                	or     (%eax),%al
 1005e39:	0a 49 6e             	or     0x6e(%ecx),%cl
 1005e3c:	74 65                	je     1005ea3 <ELF_IDENT+0x15f>
 1005e3e:	72 72                	jb     1005eb2 <ELF_IDENT+0x16e>
 1005e40:	75 70                	jne    1005eb2 <ELF_IDENT+0x16e>
 1005e42:	74 20                	je     1005e64 <ELF_IDENT+0x120>
 1005e44:	3a 32                	cmp    (%edx),%dh
 1005e46:	09 20                	or     %esp,(%eax)
 1005e48:	23 4e 4d             	and    0x4d(%esi),%ecx
 1005e4b:	49                   	dec    %ecx
 1005e4c:	0a 00                	or     (%eax),%al
 1005e4e:	0a 49 6e             	or     0x6e(%ecx),%cl
 1005e51:	74 65                	je     1005eb8 <ELF_IDENT+0x174>
 1005e53:	72 72                	jb     1005ec7 <ELF_IDENT+0x183>
 1005e55:	75 70                	jne    1005ec7 <ELF_IDENT+0x183>
 1005e57:	74 20                	je     1005e79 <ELF_IDENT+0x135>
 1005e59:	3a 33                	cmp    (%ebx),%dh
 1005e5b:	09 20                	or     %esp,(%eax)
 1005e5d:	23 42 72             	and    0x72(%edx),%eax
 1005e60:	65 61                	gs popa 
 1005e62:	6b 70 6f 69          	imul   $0x69,0x6f(%eax),%esi
 1005e66:	6e                   	outsb  %ds:(%esi),(%dx)
 1005e67:	74 0a                	je     1005e73 <ELF_IDENT+0x12f>
 1005e69:	00 0a                	add    %cl,(%edx)
 1005e6b:	49                   	dec    %ecx
 1005e6c:	6e                   	outsb  %ds:(%esi),(%dx)
 1005e6d:	74 65                	je     1005ed4 <ELF_IDENT+0x190>
 1005e6f:	72 72                	jb     1005ee3 <ELF_IDENT+0x19f>
 1005e71:	75 70                	jne    1005ee3 <ELF_IDENT+0x19f>
 1005e73:	74 20                	je     1005e95 <ELF_IDENT+0x151>
 1005e75:	3a 34 09             	cmp    (%ecx,%ecx,1),%dh
 1005e78:	20 23                	and    %ah,(%ebx)
 1005e7a:	4f                   	dec    %edi
 1005e7b:	76 65                	jbe    1005ee2 <ELF_IDENT+0x19e>
 1005e7d:	72 66                	jb     1005ee5 <ELF_IDENT+0x1a1>
 1005e7f:	6c                   	insb   (%dx),%es:(%edi)
 1005e80:	6f                   	outsl  %ds:(%esi),(%dx)
 1005e81:	77 0a                	ja     1005e8d <ELF_IDENT+0x149>
 1005e83:	00 0a                	add    %cl,(%edx)
 1005e85:	49                   	dec    %ecx
 1005e86:	6e                   	outsb  %ds:(%esi),(%dx)
 1005e87:	74 65                	je     1005eee <ELF_IDENT+0x1aa>
 1005e89:	72 72                	jb     1005efd <ELF_IDENT+0x1b9>
 1005e8b:	75 70                	jne    1005efd <ELF_IDENT+0x1b9>
 1005e8d:	74 20                	je     1005eaf <ELF_IDENT+0x16b>
 1005e8f:	3a 35 09 20 23 42    	cmp    0x42232009,%dh
 1005e95:	4f                   	dec    %edi
 1005e96:	55                   	push   %ebp
 1005e97:	4e                   	dec    %esi
 1005e98:	44                   	inc    %esp
 1005e99:	20 52 61             	and    %dl,0x61(%edx)
 1005e9c:	6e                   	outsb  %ds:(%esi),(%dx)
 1005e9d:	67 65 20 45 78       	and    %al,%gs:0x78(%di)
 1005ea2:	63 65 65             	arpl   %sp,0x65(%ebp)
 1005ea5:	64 65 64 20 45 78    	fs gs and %al,%fs:0x78(%ebp)
 1005eab:	63 65 70             	arpl   %sp,0x70(%ebp)
 1005eae:	74 69                	je     1005f19 <ELF_IDENT+0x1d5>
 1005eb0:	6f                   	outsl  %ds:(%esi),(%dx)
 1005eb1:	6e                   	outsb  %ds:(%esi),(%dx)
 1005eb2:	0a 00                	or     (%eax),%al
 1005eb4:	0a 49 6e             	or     0x6e(%ecx),%cl
 1005eb7:	74 65                	je     1005f1e <ELF_IDENT+0x1da>
 1005eb9:	72 72                	jb     1005f2d <ELF_IDENT+0x1e9>
 1005ebb:	75 70                	jne    1005f2d <ELF_IDENT+0x1e9>
 1005ebd:	74 20                	je     1005edf <ELF_IDENT+0x19b>
 1005ebf:	3a 36                	cmp    (%esi),%dh
 1005ec1:	09 20                	or     %esp,(%eax)
 1005ec3:	23 49 6e             	and    0x6e(%ecx),%ecx
 1005ec6:	76 61                	jbe    1005f29 <ELF_IDENT+0x1e5>
 1005ec8:	6c                   	insb   (%dx),%es:(%edi)
 1005ec9:	69 64 20 4f 70 63 6f 	imul   $0x646f6370,0x4f(%eax,%eiz,1),%esp
 1005ed0:	64 
 1005ed1:	65 0a 2d 3e 00 00 00 	or     %gs:0x3e,%ch
 1005ed8:	0a 49 6e             	or     0x6e(%ecx),%cl
 1005edb:	74 65                	je     1005f42 <ELF_IDENT+0x1fe>
 1005edd:	72 72                	jb     1005f51 <ELF_IDENT+0x20d>
 1005edf:	75 70                	jne    1005f51 <ELF_IDENT+0x20d>
 1005ee1:	74 20                	je     1005f03 <ELF_IDENT+0x1bf>
 1005ee3:	3a 37                	cmp    (%edi),%dh
 1005ee5:	09 20                	or     %esp,(%eax)
 1005ee7:	23 4e 6f             	and    0x6f(%esi),%ecx
 1005eea:	20 4d 61             	and    %cl,0x61(%ebp)
 1005eed:	74 68                	je     1005f57 <ELF_IDENT+0x213>
 1005eef:	20 43 6f             	and    %al,0x6f(%ebx)
 1005ef2:	70 72                	jo     1005f66 <ELF_IDENT+0x222>
 1005ef4:	6f                   	outsl  %ds:(%esi),(%dx)
 1005ef5:	63 65 73             	arpl   %sp,0x73(%ebp)
 1005ef8:	73 6f                	jae    1005f69 <ELF_IDENT+0x225>
 1005efa:	72 0a                	jb     1005f06 <ELF_IDENT+0x1c2>
 1005efc:	00 00                	add    %al,(%eax)
 1005efe:	00 00                	add    %al,(%eax)
 1005f00:	0a 49 6e             	or     0x6e(%ecx),%cl
 1005f03:	74 65                	je     1005f6a <ELF_IDENT+0x226>
 1005f05:	72 72                	jb     1005f79 <ELF_IDENT+0x235>
 1005f07:	75 70                	jne    1005f79 <ELF_IDENT+0x235>
 1005f09:	74 20                	je     1005f2b <ELF_IDENT+0x1e7>
 1005f0b:	3a 38                	cmp    (%eax),%bh
 1005f0d:	09 20                	or     %esp,(%eax)
 1005f0f:	23 44 6f 75          	and    0x75(%edi,%ebp,2),%eax
 1005f13:	62 6c 65 20          	bound  %ebp,0x20(%ebp,%eiz,2)
 1005f17:	45                   	inc    %ebp
 1005f18:	72 72                	jb     1005f8c <ELF_IDENT+0x248>
 1005f1a:	6f                   	outsl  %ds:(%esi),(%dx)
 1005f1b:	72 20                	jb     1005f3d <ELF_IDENT+0x1f9>
 1005f1d:	2f                   	das    
 1005f1e:	50                   	push   %eax
 1005f1f:	41                   	inc    %ecx
 1005f20:	4e                   	dec    %esi
 1005f21:	49                   	dec    %ecx
 1005f22:	43                   	inc    %ebx
 1005f23:	0a 00                	or     (%eax),%al
 1005f25:	0a 49 6e             	or     0x6e(%ecx),%cl
 1005f28:	74 65                	je     1005f8f <ELF_IDENT+0x24b>
 1005f2a:	72 72                	jb     1005f9e <ELF_IDENT+0x25a>
 1005f2c:	75 70                	jne    1005f9e <ELF_IDENT+0x25a>
 1005f2e:	74 20                	je     1005f50 <ELF_IDENT+0x20c>
 1005f30:	3a 39                	cmp    (%ecx),%bh
 1005f32:	09 20                	or     %esp,(%eax)
 1005f34:	23 52 65             	and    0x65(%edx),%edx
 1005f37:	73 65                	jae    1005f9e <ELF_IDENT+0x25a>
 1005f39:	72 76                	jb     1005fb1 <ELF_IDENT+0x26d>
 1005f3b:	0a 00                	or     (%eax),%al
 1005f3d:	0a 49 6e             	or     0x6e(%ecx),%cl
 1005f40:	74 65                	je     1005fa7 <ELF_IDENT+0x263>
 1005f42:	72 72                	jb     1005fb6 <ELF_IDENT+0x272>
 1005f44:	75 70                	jne    1005fb6 <ELF_IDENT+0x272>
 1005f46:	74 20                	je     1005f68 <ELF_IDENT+0x224>
 1005f48:	3a 31                	cmp    (%ecx),%dh
 1005f4a:	30 09                	xor    %cl,(%ecx)
 1005f4c:	20 23                	and    %ah,(%ebx)
 1005f4e:	49                   	dec    %ecx
 1005f4f:	6e                   	outsb  %ds:(%esi),(%dx)
 1005f50:	76 61                	jbe    1005fb3 <ELF_IDENT+0x26f>
 1005f52:	6c                   	insb   (%dx),%es:(%edi)
 1005f53:	69 64 20 54 53 53 0a 	imul   $0xa5353,0x54(%eax,%eiz,1),%esp
 1005f5a:	00 
 1005f5b:	00 0a                	add    %cl,(%edx)
 1005f5d:	49                   	dec    %ecx
 1005f5e:	6e                   	outsb  %ds:(%esi),(%dx)
 1005f5f:	74 65                	je     1005fc6 <ELF_IDENT+0x282>
 1005f61:	72 72                	jb     1005fd5 <ELF_IDENT+0x291>
 1005f63:	75 70                	jne    1005fd5 <ELF_IDENT+0x291>
 1005f65:	74 20                	je     1005f87 <ELF_IDENT+0x243>
 1005f67:	3a 31                	cmp    (%ecx),%dh
 1005f69:	31 09                	xor    %ecx,(%ecx)
 1005f6b:	20 23                	and    %ah,(%ebx)
 1005f6d:	53                   	push   %ebx
 1005f6e:	65 67 6d             	gs insl (%dx),%es:(%di)
 1005f71:	65 6e                	outsb  %gs:(%esi),(%dx)
 1005f73:	74 20                	je     1005f95 <ELF_IDENT+0x251>
 1005f75:	69 73 20 6e 6f 74 20 	imul   $0x20746f6e,0x20(%ebx),%esi
 1005f7c:	70 72                	jo     1005ff0 <ELF_IDENT+0x2ac>
 1005f7e:	65 73 65             	gs jae 1005fe6 <ELF_IDENT+0x2a2>
 1005f81:	6e                   	outsb  %ds:(%esi),(%dx)
 1005f82:	74 0a                	je     1005f8e <ELF_IDENT+0x24a>
 1005f84:	00 00                	add    %al,(%eax)
 1005f86:	00 00                	add    %al,(%eax)
 1005f88:	0a 49 6e             	or     0x6e(%ecx),%cl
 1005f8b:	74 65                	je     1005ff2 <ELF_IDENT+0x2ae>
 1005f8d:	72 72                	jb     1006001 <ELF_IDENT+0x2bd>
 1005f8f:	75 70                	jne    1006001 <ELF_IDENT+0x2bd>
 1005f91:	74 20                	je     1005fb3 <ELF_IDENT+0x26f>
 1005f93:	3a 31                	cmp    (%ecx),%dh
 1005f95:	32 09                	xor    (%ecx),%cl
 1005f97:	20 23                	and    %ah,(%ebx)
 1005f99:	53                   	push   %ebx
 1005f9a:	74 61                	je     1005ffd <ELF_IDENT+0x2b9>
 1005f9c:	63 6b 20             	arpl   %bp,0x20(%ebx)
 1005f9f:	53                   	push   %ebx
 1005fa0:	65 67 6d             	gs insl (%dx),%es:(%di)
 1005fa3:	65 6e                	outsb  %gs:(%esi),(%dx)
 1005fa5:	74 20                	je     1005fc7 <ELF_IDENT+0x283>
 1005fa7:	45                   	inc    %ebp
 1005fa8:	72 72                	jb     100601c <ELF_IDENT+0x2d8>
 1005faa:	6f                   	outsl  %ds:(%esi),(%dx)
 1005fab:	72 0a                	jb     1005fb7 <ELF_IDENT+0x273>
 1005fad:	00 00                	add    %al,(%eax)
 1005faf:	00 0a                	add    %cl,(%edx)
 1005fb1:	49                   	dec    %ecx
 1005fb2:	6e                   	outsb  %ds:(%esi),(%dx)
 1005fb3:	74 65                	je     100601a <ELF_IDENT+0x2d6>
 1005fb5:	72 72                	jb     1006029 <ELF_IDENT+0x2e5>
 1005fb7:	75 70                	jne    1006029 <ELF_IDENT+0x2e5>
 1005fb9:	74 3a                	je     1005ff5 <ELF_IDENT+0x2b1>
 1005fbb:	31 33                	xor    %esi,(%ebx)
 1005fbd:	09 20                	or     %esp,(%eax)
 1005fbf:	23 47 6c             	and    0x6c(%edi),%eax
 1005fc2:	6f                   	outsl  %ds:(%esi),(%dx)
 1005fc3:	62 61 6c             	bound  %esp,0x6c(%ecx)
 1005fc6:	20 50 72             	and    %dl,0x72(%eax)
 1005fc9:	6f                   	outsl  %ds:(%esi),(%dx)
 1005fca:	74 65                	je     1006031 <ELF_IDENT+0x2ed>
 1005fcc:	63 74 65 64          	arpl   %si,0x64(%ebp,%eiz,2)
 1005fd0:	2e 0a 00             	or     %cs:(%eax),%al
 1005fd3:	00 0a                	add    %cl,(%edx)
 1005fd5:	49                   	dec    %ecx
 1005fd6:	6e                   	outsb  %ds:(%esi),(%dx)
 1005fd7:	74 65                	je     100603e <ELF_IDENT+0x2fa>
 1005fd9:	72 72                	jb     100604d <ELF_IDENT+0x309>
 1005fdb:	75 70                	jne    100604d <ELF_IDENT+0x309>
 1005fdd:	74 20                	je     1005fff <ELF_IDENT+0x2bb>
 1005fdf:	3a 31                	cmp    (%ecx),%dh
 1005fe1:	34 09                	xor    $0x9,%al
 1005fe3:	20 23                	and    %ah,(%ebx)
 1005fe5:	50                   	push   %eax
 1005fe6:	61                   	popa   
 1005fe7:	67 65 20 46 61       	and    %al,%gs:0x61(%bp)
 1005fec:	75 6c                	jne    100605a <ELF_IDENT+0x316>
 1005fee:	74 20                	je     1006010 <ELF_IDENT+0x2cc>
 1005ff0:	69 6e 20 30 78 00 00 	imul   $0x7830,0x20(%esi),%ebp
 1005ff7:	00 0a                	add    %cl,(%edx)
 1005ff9:	49                   	dec    %ecx
 1005ffa:	6e                   	outsb  %ds:(%esi),(%dx)
 1005ffb:	74 65                	je     1006062 <ELF_IDENT+0x31e>
 1005ffd:	72 72                	jb     1006071 <ELF_IDENT+0x32d>
 1005fff:	75 70                	jne    1006071 <ELF_IDENT+0x32d>
 1006001:	74 20                	je     1006023 <ELF_IDENT+0x2df>
 1006003:	3a 31                	cmp    (%ecx),%dh
 1006005:	35 09 20 23 49       	xor    $0x49232009,%eax
 100600a:	6e                   	outsb  %ds:(%esi),(%dx)
 100600b:	74 65                	je     1006072 <ELF_IDENT+0x32e>
 100600d:	6c                   	insb   (%dx),%es:(%edi)
 100600e:	20 52 65             	and    %dl,0x65(%edx)
 1006011:	73 65                	jae    1006078 <ELF_IDENT+0x334>
 1006013:	72 76                	jb     100608b <ELF_IDENT+0x347>
 1006015:	0a 00                	or     (%eax),%al
 1006017:	0a 49 6e             	or     0x6e(%ecx),%cl
 100601a:	74 65                	je     1006081 <ELF_IDENT+0x33d>
 100601c:	72 72                	jb     1006090 <ELF_IDENT+0x34c>
 100601e:	75 70                	jne    1006090 <ELF_IDENT+0x34c>
 1006020:	74 20                	je     1006042 <ELF_IDENT+0x2fe>
 1006022:	3a 31                	cmp    (%ecx),%dh
 1006024:	36 09 20             	or     %esp,%ss:(%eax)
 1006027:	23 4d 61             	and    0x61(%ebp),%ecx
 100602a:	74 63                	je     100608f <ELF_IDENT+0x34b>
 100602c:	68 20 46 61 75       	push   $0x75614620
 1006031:	6c                   	insb   (%dx),%es:(%edi)
 1006032:	74 0a                	je     100603e <ELF_IDENT+0x2fa>
 1006034:	00 00                	add    %al,(%eax)
 1006036:	00 00                	add    %al,(%eax)
 1006038:	0a 49 6e             	or     0x6e(%ecx),%cl
 100603b:	74 65                	je     10060a2 <ELF_IDENT+0x35e>
 100603d:	72 72                	jb     10060b1 <ELF_IDENT+0x36d>
 100603f:	75 70                	jne    10060b1 <ELF_IDENT+0x36d>
 1006041:	74 20                	je     1006063 <ELF_IDENT+0x31f>
 1006043:	3a 31                	cmp    (%ecx),%dh
 1006045:	38 09                	cmp    %cl,(%ecx)
 1006047:	20 23                	and    %ah,(%ebx)
 1006049:	43                   	inc    %ebx
 100604a:	68 65 63 6b 20       	push   $0x206b6365
 100604f:	4f                   	dec    %edi
 1006050:	66 66 73 65          	data16 data16 jae 10060b9 <ELF_IDENT+0x375>
 1006054:	74 0a                	je     1006060 <ELF_IDENT+0x31c>
 1006056:	00 00                	add    %al,(%eax)
 1006058:	0a 49 6e             	or     0x6e(%ecx),%cl
 100605b:	74 65                	je     10060c2 <ELF_IDENT+0x37e>
 100605d:	72 72                	jb     10060d1 <ELF_IDENT+0x38d>
 100605f:	75 70                	jne    10060d1 <ELF_IDENT+0x38d>
 1006061:	74 20                	je     1006083 <ELF_IDENT+0x33f>
 1006063:	3a 31                	cmp    (%ecx),%dh
 1006065:	37                   	aaa    
 1006066:	09 20                	or     %esp,(%eax)
 1006068:	23 43 68             	and    0x68(%ebx),%eax
 100606b:	65 63 6b 20          	arpl   %bp,%gs:0x20(%ebx)
 100606f:	64 65 76 69          	fs gs jbe 10060dc <ELF_IDENT+0x398>
 1006073:	63 65 0a             	arpl   %sp,0xa(%ebp)
 1006076:	00 00                	add    %al,(%eax)
 1006078:	0a 49 6e             	or     0x6e(%ecx),%cl
 100607b:	74 65                	je     10060e2 <ELF_IDENT+0x39e>
 100607d:	72 72                	jb     10060f1 <ELF_IDENT+0x3ad>
 100607f:	75 70                	jne    10060f1 <ELF_IDENT+0x3ad>
 1006081:	74 20                	je     10060a3 <ELF_IDENT+0x35f>
 1006083:	3a 31                	cmp    (%ecx),%dh
 1006085:	38 09                	cmp    %cl,(%ecx)
 1006087:	20 23                	and    %ah,(%ebx)
 1006089:	46                   	inc    %esi
 100608a:	6c                   	insb   (%dx),%es:(%edi)
 100608b:	6f                   	outsl  %ds:(%esi),(%dx)
 100608c:	61                   	popa   
 100608d:	74 69                	je     10060f8 <ELF_IDENT+0x3b4>
 100608f:	6e                   	outsb  %ds:(%esi),(%dx)
 1006090:	67 20 70 6f          	and    %dh,0x6f(%bx,%si)
 1006094:	69 6e 74 20 65 78 63 	imul   $0x63786520,0x74(%esi),%ebp
 100609b:	65 70 74             	gs jo  1006112 <ELF_IDENT+0x3ce>
 100609e:	69 6f 6e 0a 00 49 52 	imul   $0x5249000a,0x6e(%edi),%ebp
 10060a5:	51                   	push   %ecx
 10060a6:	5f                   	pop    %edi
 10060a7:	4b                   	dec    %ebx
 10060a8:	65 79 62             	gs jns 100610d <ELF_IDENT+0x3c9>
 10060ab:	6f                   	outsl  %ds:(%esi),(%dx)
 10060ac:	72 64                	jb     1006112 <ELF_IDENT+0x3ce>
 10060ae:	00 49 51             	add    %cl,0x51(%ecx)
 10060b1:	52                   	push   %edx
 10060b2:	5f                   	pop    %edi
 10060b3:	43                   	inc    %ebx
 10060b4:	4f                   	dec    %edi
 10060b5:	4d                   	dec    %ebp
 10060b6:	31 5f 33             	xor    %ebx,0x33(%edi)
 10060b9:	00 49 51             	add    %cl,0x51(%ecx)
 10060bc:	52                   	push   %edx
 10060bd:	5f                   	pop    %edi
 10060be:	4c                   	dec    %esp
 10060bf:	54                   	push   %esp
 10060c0:	50                   	push   %eax
 10060c1:	32 0a                	xor    (%edx),%cl
 10060c3:	00 49 51             	add    %cl,0x51(%ecx)
 10060c6:	52                   	push   %edx
 10060c7:	5f                   	pop    %edi
 10060c8:	46                   	inc    %esi
 10060c9:	6c                   	insb   (%dx),%es:(%edi)
 10060ca:	6f                   	outsl  %ds:(%esi),(%dx)
 10060cb:	70 70                	jo     100613d <ELF_IDENT+0x3f9>
 10060cd:	79 44                	jns    1006113 <ELF_IDENT+0x3cf>
 10060cf:	43                   	inc    %ebx
 10060d0:	00 49 51             	add    %cl,0x51(%ecx)
 10060d3:	52                   	push   %edx
 10060d4:	5f                   	pop    %edi
 10060d5:	4c                   	dec    %esp
 10060d6:	54                   	push   %esp
 10060d7:	50                   	push   %eax
 10060d8:	31 0a                	xor    %ecx,(%edx)
 10060da:	00 49 51             	add    %cl,0x51(%ecx)
 10060dd:	52                   	push   %edx
 10060de:	5f                   	pop    %edi
 10060df:	52                   	push   %edx
 10060e0:	54                   	push   %esp
 10060e1:	43                   	inc    %ebx
 10060e2:	00 49 51             	add    %cl,0x51(%ecx)
 10060e5:	52                   	push   %edx
 10060e6:	5f                   	pop    %edi
 10060e7:	52                   	push   %edx
 10060e8:	65 64 69 72 65 63 74 	gs imul $0x51497463,%fs:0x65(%edx),%esi
 10060ef:	49 51 
 10060f1:	52                   	push   %edx
 10060f2:	32 00                	xor    (%eax),%al
 10060f4:	49                   	dec    %ecx
 10060f5:	51                   	push   %ecx
 10060f6:	52                   	push   %edx
 10060f7:	5f                   	pop    %edi
 10060f8:	52                   	push   %edx
 10060f9:	65 73 65             	gs jae 1006161 <ELF_IDENT+0x41d>
 10060fc:	72 76                	jb     1006174 <ELF_IDENT+0x430>
 10060fe:	31 0a                	xor    %ecx,(%edx)
 1006100:	00 49 51             	add    %cl,0x51(%ecx)
 1006103:	52                   	push   %edx
 1006104:	5f                   	pop    %edi
 1006105:	52                   	push   %edx
 1006106:	65 73 65             	gs jae 100616e <ELF_IDENT+0x42a>
 1006109:	72 76                	jb     1006181 <ELF_IDENT+0x43d>
 100610b:	32 0a                	xor    (%edx),%cl
 100610d:	00 49 51             	add    %cl,0x51(%ecx)
 1006110:	52                   	push   %edx
 1006111:	5f                   	pop    %edi
 1006112:	52                   	push   %edx
 1006113:	65 73 65             	gs jae 100617b <ELF_IDENT+0x437>
 1006116:	72 76                	jb     100618e <ELF_IDENT+0x44a>
 1006118:	33 0a                	xor    (%edx),%ecx
 100611a:	00 49 51             	add    %cl,0x51(%ecx)
 100611d:	52                   	push   %edx
 100611e:	5f                   	pop    %edi
 100611f:	53                   	push   %ebx
 1006120:	6f                   	outsl  %ds:(%esi),(%dx)
 1006121:	50                   	push   %eax
 1006122:	72 6f                	jb     1006193 <ELF_IDENT+0x44f>
 1006124:	63 65 73             	arpl   %sp,0x73(%ebp)
 1006127:	73 6f                	jae    1006198 <ELF_IDENT+0x454>
 1006129:	72 0a                	jb     1006135 <ELF_IDENT+0x3f1>
 100612b:	00 49 51             	add    %cl,0x51(%ecx)
 100612e:	52                   	push   %edx
 100612f:	5f                   	pop    %edi
 1006130:	48                   	dec    %eax
 1006131:	61                   	popa   
 1006132:	72 64                	jb     1006198 <ELF_IDENT+0x454>
 1006134:	44                   	inc    %esp
 1006135:	43                   	inc    %ebx
 1006136:	0a 00                	or     (%eax),%al
 1006138:	49                   	dec    %ecx
 1006139:	51                   	push   %ecx
 100613a:	52                   	push   %edx
 100613b:	5f                   	pop    %edi
 100613c:	52                   	push   %edx
 100613d:	65 73 65             	gs jae 10061a5 <ELF_IDENT+0x461>
 1006140:	72 76                	jb     10061b8 <ELF_IDENT+0x474>
 1006142:	34 0a                	xor    $0xa,%al
 1006144:	00 0a                	add    %cl,(%edx)
 1006146:	54                   	push   %esp
 1006147:	68 69 73 20 49       	push   $0x49207369
 100614c:	6e                   	outsb  %ds:(%esi),(%dx)
 100614d:	74 65                	je     10061b4 <ELF_IDENT+0x470>
 100614f:	72 72                	jb     10061c3 <ELF_IDENT+0x47f>
 1006151:	75 70                	jne    10061c3 <ELF_IDENT+0x47f>
 1006153:	74 20                	je     1006175 <ELF_IDENT+0x431>
 1006155:	66 72 65             	data16 jb 10061bd <ELF_IDENT+0x479>
 1006158:	65 21 0a             	and    %ecx,%gs:(%edx)
 100615b:	00 0a                	add    %cl,(%edx)
 100615d:	45                   	inc    %ebp
 100615e:	72 72                	jb     10061d2 <ELF_IDENT+0x48e>
 1006160:	6f                   	outsl  %ds:(%esi),(%dx)
 1006161:	72 3a                	jb     100619d <ELF_IDENT+0x459>
 1006163:	20 45 78             	and    %al,0x78(%ebp)
 1006166:	63 65 65             	arpl   %sp,0x65(%ebp)
 1006169:	64 69 6e 67 20 74 68 	imul   $0x65687420,%fs:0x67(%esi),%ebp
 1006170:	65 
 1006171:	20 69 6e             	and    %ch,0x6e(%ecx)
 1006174:	74 65                	je     10061db <ELF_IDENT+0x497>
 1006176:	72 76                	jb     10061ee <ELF_IDENT+0x4aa>
 1006178:	61                   	popa   
 1006179:	6c                   	insb   (%dx),%es:(%edi)
 100617a:	20 6f 76             	and    %ch,0x76(%edi)
 100617d:	65 72 66             	gs jb  10061e6 <ELF_IDENT+0x4a2>
 1006180:	75 6c                	jne    10061ee <ELF_IDENT+0x4aa>
 1006182:	20 49 44             	and    %cl,0x44(%ecx)
 1006185:	54                   	push   %esp
 1006186:	0a 00                	or     (%eax),%al
 1006188:	43                   	inc    %ebx
 1006189:	6f                   	outsl  %ds:(%esi),(%dx)
 100618a:	6e                   	outsb  %ds:(%esi),(%dx)
 100618b:	66 69 67 75 72 65    	imul   $0x6572,0x75(%edi),%sp
 1006191:	20 49 44             	and    %cl,0x44(%ecx)
 1006194:	54                   	push   %esp
 1006195:	0a 00                	or     (%eax),%al
 1006197:	0a 50 49             	or     0x49(%eax),%dl
 100619a:	43                   	inc    %ebx
 100619b:	20 46 6f             	and    %al,0x6f(%esi)
 100619e:	75 6e                	jne    100620e <ELF_IDENT+0x4ca>
 10061a0:	64 00 0a             	add    %cl,%fs:(%edx)
 10061a3:	41                   	inc    %ecx
 10061a4:	50                   	push   %eax
 10061a5:	49                   	dec    %ecx
 10061a6:	43                   	inc    %ebx
 10061a7:	20 78 32             	and    %bh,0x32(%eax)
 10061aa:	20 46 6f             	and    %al,0x6f(%esi)
 10061ad:	75 6e                	jne    100621d <ELF_IDENT+0x4d9>
 10061af:	64 00 0a             	add    %cl,%fs:(%edx)
 10061b2:	41                   	inc    %ecx
 10061b3:	50                   	push   %eax
 10061b4:	49                   	dec    %ecx
 10061b5:	43                   	inc    %ebx
 10061b6:	20 46 6f             	and    %al,0x6f(%esi)
 10061b9:	75 6e                	jne    1006229 <ELF_IDENT+0x4e5>
 10061bb:	64 00 0a             	add    %cl,%fs:(%edx)
 10061be:	48                   	dec    %eax
 10061bf:	44                   	inc    %esp
 10061c0:	44                   	inc    %esp
 10061c1:	20 46 41             	and    %al,0x41(%esi)
 10061c4:	54                   	push   %esp
 10061c5:	41                   	inc    %ecx
 10061c6:	4c                   	dec    %esp
 10061c7:	20 45 52             	and    %al,0x52(%ebp)
 10061ca:	52                   	push   %edx
 10061cb:	4f                   	dec    %edi
 10061cc:	52                   	push   %edx
 10061cd:	21 0a                	and    %ecx,(%edx)
 10061cf:	00 20                	add    %ah,(%eax)
 10061d1:	7c 20                	jl     10061f3 <ELF_IDENT+0x4af>
 10061d3:	53                   	push   %ebx
 10061d4:	43                   	inc    %ebx
 10061d5:	53                   	push   %ebx
 10061d6:	49                   	dec    %ecx
 10061d7:	00 20                	add    %ah,(%eax)
 10061d9:	7c 20                	jl     10061fb <ELF_IDENT+0x4b7>
 10061db:	49                   	dec    %ecx
 10061dc:	44                   	inc    %esp
 10061dd:	45                   	inc    %ebp
 10061de:	00 20                	add    %ah,(%eax)
 10061e0:	7c 20                	jl     1006202 <ELF_IDENT+0x4be>
 10061e2:	46                   	inc    %esi
 10061e3:	6c                   	insb   (%dx),%es:(%edi)
 10061e4:	6f                   	outsl  %ds:(%esi),(%dx)
 10061e5:	70 70                	jo     1006257 <ELF_IDENT+0x513>
 10061e7:	79 20                	jns    1006209 <ELF_IDENT+0x4c5>
 10061e9:	64 69 73 6b 00 20 7c 	imul   $0x207c2000,%fs:0x6b(%ebx),%esi
 10061f0:	20 
 10061f1:	49                   	dec    %ecx
 10061f2:	50                   	push   %eax
 10061f3:	49                   	dec    %ecx
 10061f4:	20 62 75             	and    %ah,0x75(%edx)
 10061f7:	73 00                	jae    10061f9 <ELF_IDENT+0x4b5>
 10061f9:	20 7c 20 52          	and    %bh,0x52(%eax,%eiz,1)
 10061fd:	41                   	inc    %ecx
 10061fe:	49                   	dec    %ecx
 10061ff:	44                   	inc    %esp
 1006200:	20 62 75             	and    %ah,0x75(%edx)
 1006203:	73 00                	jae    1006205 <ELF_IDENT+0x4c1>
 1006205:	20 7c 20 41          	and    %bh,0x41(%eax,%eiz,1)
 1006209:	54                   	push   %esp
 100620a:	41                   	inc    %ecx
 100620b:	00 20                	add    %ah,(%eax)
 100620d:	7c 20                	jl     100622f <ELF_IDENT+0x4eb>
 100620f:	53                   	push   %ebx
 1006210:	41                   	inc    %ecx
 1006211:	54                   	push   %esp
 1006212:	41                   	inc    %ecx
 1006213:	00 20                	add    %ah,(%eax)
 1006215:	7c 20                	jl     1006237 <ELF_IDENT+0x4f3>
 1006217:	53                   	push   %ebx
 1006218:	65 72 69             	gs jb  1006284 <ELF_IDENT+0x540>
 100621b:	61                   	popa   
 100621c:	6c                   	insb   (%dx),%es:(%edi)
 100621d:	20 41 74             	and    %al,0x74(%ecx)
 1006220:	74 61                	je     1006283 <ELF_IDENT+0x53f>
 1006222:	63 68 65             	arpl   %bp,0x65(%eax)
 1006225:	64 20 53 43          	and    %dl,%fs:0x43(%ebx)
 1006229:	53                   	push   %ebx
 100622a:	49                   	dec    %ecx
 100622b:	00 20                	add    %ah,(%eax)
 100622d:	7c 20                	jl     100624f <ELF_IDENT+0x50b>
 100622f:	4e                   	dec    %esi
 1006230:	6f                   	outsl  %ds:(%esi),(%dx)
 1006231:	6e                   	outsb  %ds:(%esi),(%dx)
 1006232:	2d 56 6f 6c 61       	sub    $0x616c6f56,%eax
 1006237:	74 69                	je     10062a2 <ELF_IDENT+0x55e>
 1006239:	6c                   	insb   (%dx),%es:(%edi)
 100623a:	65 20 6d 65          	and    %ch,%gs:0x65(%ebp)
 100623e:	6d                   	insl   (%dx),%es:(%edi)
 100623f:	6f                   	outsl  %ds:(%esi),(%dx)
 1006240:	72 79                	jb     10062bb <ELF_IDENT+0x577>
 1006242:	00 20                	add    %ah,(%eax)
 1006244:	7c 20                	jl     1006266 <ELF_IDENT+0x522>
 1006246:	4d                   	dec    %ebp
 1006247:	61                   	popa   
 1006248:	73 73                	jae    10062bd <ELF_IDENT+0x579>
 100624a:	20 73 74             	and    %dh,0x74(%ebx)
 100624d:	6f                   	outsl  %ds:(%esi),(%dx)
 100624e:	72 61                	jb     10062b1 <ELF_IDENT+0x56d>
 1006250:	67 65 00 20          	add    %ah,%gs:(%bx,%si)
 1006254:	7c 20                	jl     1006276 <ELF_IDENT+0x532>
 1006256:	54                   	push   %esp
 1006257:	68 69 73 20 48       	push   $0x48207369
 100625c:	44                   	inc    %esp
 100625d:	44                   	inc    %esp
 100625e:	20 6e 6f             	and    %ch,0x6f(%esi)
 1006261:	74 20                	je     1006283 <ELF_IDENT+0x53f>
 1006263:	53                   	push   %ebx
 1006264:	75 70                	jne    10062d6 <ELF_IDENT+0x592>
 1006266:	70 6f                	jo     10062d7 <ELF_IDENT+0x593>
 1006268:	72 74                	jb     10062de <ELF_IDENT+0x59a>
 100626a:	65 64 21 00          	gs and %eax,%fs:(%eax)
 100626e:	0a 00                	or     (%eax),%al
 1006270:	3a 00                	cmp    (%eax),%al
 1006272:	20 28                	and    %ch,(%eax)
 1006274:	49                   	dec    %ecx
 1006275:	6e                   	outsb  %ds:(%esi),(%dx)
 1006276:	74 65                	je     10062dd <ELF_IDENT+0x599>
 1006278:	6c                   	insb   (%dx),%es:(%edi)
 1006279:	20 43 6f             	and    %al,0x6f(%ebx)
 100627c:	72 70                	jb     10062ee <ELF_IDENT+0x5aa>
 100627e:	6f                   	outsl  %ds:(%esi),(%dx)
 100627f:	72 61                	jb     10062e2 <ELF_IDENT+0x59e>
 1006281:	74 69                	je     10062ec <ELF_IDENT+0x5a8>
 1006283:	6f                   	outsl  %ds:(%esi),(%dx)
 1006284:	6e                   	outsb  %ds:(%esi),(%dx)
 1006285:	29 20                	sub    %esp,(%eax)
 1006287:	00 20                	add    %ah,(%eax)
 1006289:	28 43 69             	sub    %al,0x69(%ebx)
 100628c:	72 72                	jb     1006300 <ELF_IDENT+0x5bc>
 100628e:	75 73                	jne    1006303 <ELF_IDENT+0x5bf>
 1006290:	20 4c 6f 67          	and    %cl,0x67(%edi,%ebp,2)
 1006294:	69 63 20 43 72 79 73 	imul   $0x73797243,0x20(%ebx),%esp
 100629b:	74 61                	je     10062fe <ELF_IDENT+0x5ba>
 100629d:	6c                   	insb   (%dx),%es:(%edi)
 100629e:	29 20                	sub    %esp,(%eax)
 10062a0:	00 20                	add    %ah,(%eax)
 10062a2:	28 51 75             	sub    %dl,0x75(%ecx)
 10062a5:	61                   	popa   
 10062a6:	6c                   	insb   (%dx),%es:(%edi)
 10062a7:	63 6f 6d             	arpl   %bp,0x6d(%edi)
 10062aa:	6d                   	insl   (%dx),%es:(%edi)
 10062ab:	20 49 6e             	and    %cl,0x6e(%ecx)
 10062ae:	63 2e                	arpl   %bp,(%esi)
 10062b0:	20 55 53             	and    %dl,0x53(%ebp)
 10062b3:	41                   	inc    %ecx
 10062b4:	29 20                	sub    %esp,(%eax)
 10062b6:	00 20                	add    %ah,(%eax)
 10062b8:	28 49 6e             	sub    %cl,0x6e(%ecx)
 10062bb:	74 65                	je     1006322 <ELF_IDENT+0x5de>
 10062bd:	6c                   	insb   (%dx),%es:(%edi)
 10062be:	29 20                	sub    %esp,(%eax)
 10062c0:	00 20                	add    %ah,(%eax)
 10062c2:	28 64 65 76          	sub    %ah,0x76(%ebp,%eiz,2)
 10062c6:	69 63 65 20 69 6e 64 	imul   $0x646e6920,0x65(%ebx),%esp
 10062cd:	65 66 69 6e 65 64 29 	imul   $0x2964,%gs:0x65(%esi),%bp
 10062d4:	20 00                	and    %al,(%eax)
 10062d6:	55                   	push   %ebp
 10062d7:	6e                   	outsb  %ds:(%esi),(%dx)
 10062d8:	63 6c 61 73          	arpl   %bp,0x73(%ecx,%eiz,2)
 10062dc:	73 69                	jae    1006347 <ELF_IDENT+0x603>
 10062de:	66 69 65 64 20 64    	imul   $0x6420,0x64(%ebp),%sp
 10062e4:	65 76 69             	gs jbe 1006350 <ELF_IDENT+0x60c>
 10062e7:	63 65 00             	arpl   %sp,0x0(%ebp)
 10062ea:	4d                   	dec    %ebp
 10062eb:	61                   	popa   
 10062ec:	73 73                	jae    1006361 <ELF_IDENT+0x61d>
 10062ee:	20 73 74             	and    %dh,0x74(%ebx)
 10062f1:	6f                   	outsl  %ds:(%esi),(%dx)
 10062f2:	72 61                	jb     1006355 <ELF_IDENT+0x611>
 10062f4:	67 65 20 63 6f       	and    %ah,%gs:0x6f(%bp,%di)
 10062f9:	6e                   	outsb  %ds:(%esi),(%dx)
 10062fa:	74 72                	je     100636e <ELF_IDENT+0x62a>
 10062fc:	6f                   	outsl  %ds:(%esi),(%dx)
 10062fd:	6c                   	insb   (%dx),%es:(%edi)
 10062fe:	6c                   	insb   (%dx),%es:(%edi)
 10062ff:	65 72 00             	gs jb  1006302 <ELF_IDENT+0x5be>
 1006302:	4e                   	dec    %esi
 1006303:	65 74 77             	gs je  100637d <ELF_IDENT+0x639>
 1006306:	6f                   	outsl  %ds:(%esi),(%dx)
 1006307:	72 6b                	jb     1006374 <ELF_IDENT+0x630>
 1006309:	20 63 6f             	and    %ah,0x6f(%ebx)
 100630c:	6e                   	outsb  %ds:(%esi),(%dx)
 100630d:	74 72                	je     1006381 <ELF_IDENT+0x63d>
 100630f:	6f                   	outsl  %ds:(%esi),(%dx)
 1006310:	6c                   	insb   (%dx),%es:(%edi)
 1006311:	6c                   	insb   (%dx),%es:(%edi)
 1006312:	65 72 00             	gs jb  1006315 <ELF_IDENT+0x5d1>
 1006315:	44                   	inc    %esp
 1006316:	69 73 70 6c 61 79 20 	imul   $0x2079616c,0x70(%ebx),%esi
 100631d:	63 6f 6e             	arpl   %bp,0x6e(%edi)
 1006320:	74 72                	je     1006394 <ELF_IDENT+0x650>
 1006322:	6f                   	outsl  %ds:(%esi),(%dx)
 1006323:	6c                   	insb   (%dx),%es:(%edi)
 1006324:	6c                   	insb   (%dx),%es:(%edi)
 1006325:	65 72 00             	gs jb  1006328 <ELF_IDENT+0x5e4>
 1006328:	4d                   	dec    %ebp
 1006329:	75 6c                	jne    1006397 <ELF_IDENT+0x653>
 100632b:	74 69                	je     1006396 <ELF_IDENT+0x652>
 100632d:	6d                   	insl   (%dx),%es:(%edi)
 100632e:	65 64 69 61 20 63 6f 	gs imul $0x746e6f63,%fs:0x20(%ecx),%esp
 1006335:	6e 74 
 1006337:	72 6f                	jb     10063a8 <ELF_IDENT+0x664>
 1006339:	6c                   	insb   (%dx),%es:(%edi)
 100633a:	6c                   	insb   (%dx),%es:(%edi)
 100633b:	65 72 00             	gs jb  100633e <ELF_IDENT+0x5fa>
 100633e:	4d                   	dec    %ebp
 100633f:	65 6d                	gs insl (%dx),%es:(%edi)
 1006341:	6f                   	outsl  %ds:(%esi),(%dx)
 1006342:	72 79                	jb     10063bd <ELF_IDENT+0x679>
 1006344:	20 63 6f             	and    %ah,0x6f(%ebx)
 1006347:	6e                   	outsb  %ds:(%esi),(%dx)
 1006348:	74 72                	je     10063bc <ELF_IDENT+0x678>
 100634a:	6f                   	outsl  %ds:(%esi),(%dx)
 100634b:	6c                   	insb   (%dx),%es:(%edi)
 100634c:	6c                   	insb   (%dx),%es:(%edi)
 100634d:	65 72 00             	gs jb  1006350 <ELF_IDENT+0x60c>
 1006350:	42                   	inc    %edx
 1006351:	72 69                	jb     10063bc <ELF_IDENT+0x678>
 1006353:	64 67 65 00 43 6f    	fs add %al,%gs:0x6f(%bp,%di)
 1006359:	6d                   	insl   (%dx),%es:(%edi)
 100635a:	6d                   	insl   (%dx),%es:(%edi)
 100635b:	75 6e                	jne    10063cb <ELF_IDENT+0x687>
 100635d:	69 63 61 74 69 6f 6e 	imul   $0x6e6f6974,0x61(%ebx),%esp
 1006364:	20 63 6f             	and    %ah,0x6f(%ebx)
 1006367:	6e                   	outsb  %ds:(%esi),(%dx)
 1006368:	74 72                	je     10063dc <ELF_IDENT+0x698>
 100636a:	6f                   	outsl  %ds:(%esi),(%dx)
 100636b:	6c                   	insb   (%dx),%es:(%edi)
 100636c:	6c                   	insb   (%dx),%es:(%edi)
 100636d:	65 72 00             	gs jb  1006370 <ELF_IDENT+0x62c>
 1006370:	47                   	inc    %edi
 1006371:	65 6e                	outsb  %gs:(%esi),(%dx)
 1006373:	65 72 69             	gs jb  10063df <ELF_IDENT+0x69b>
 1006376:	63 20                	arpl   %sp,(%eax)
 1006378:	73 79                	jae    10063f3 <ELF_IDENT+0x6af>
 100637a:	73 74                	jae    10063f0 <ELF_IDENT+0x6ac>
 100637c:	65 6d                	gs insl (%dx),%es:(%edi)
 100637e:	20 70 65             	and    %dh,0x65(%eax)
 1006381:	72 69                	jb     10063ec <ELF_IDENT+0x6a8>
 1006383:	70 68                	jo     10063ed <ELF_IDENT+0x6a9>
 1006385:	65 72 61             	gs jb  10063e9 <ELF_IDENT+0x6a5>
 1006388:	6c                   	insb   (%dx),%es:(%edi)
 1006389:	00 49 6e             	add    %cl,0x6e(%ecx)
 100638c:	70 75                	jo     1006403 <ELF_IDENT+0x6bf>
 100638e:	74 20                	je     10063b0 <ELF_IDENT+0x66c>
 1006390:	64 65 76 69          	fs gs jbe 10063fd <ELF_IDENT+0x6b9>
 1006394:	63 65 20             	arpl   %sp,0x20(%ebp)
 1006397:	63 6f 6e             	arpl   %bp,0x6e(%edi)
 100639a:	74 72                	je     100640e <ELF_IDENT+0x6ca>
 100639c:	6f                   	outsl  %ds:(%esi),(%dx)
 100639d:	6c                   	insb   (%dx),%es:(%edi)
 100639e:	6c                   	insb   (%dx),%es:(%edi)
 100639f:	65 72 00             	gs jb  10063a2 <ELF_IDENT+0x65e>
 10063a2:	44                   	inc    %esp
 10063a3:	6f                   	outsl  %ds:(%esi),(%dx)
 10063a4:	63 6b 69             	arpl   %bp,0x69(%ebx)
 10063a7:	6e                   	outsb  %ds:(%esi),(%dx)
 10063a8:	67 20 73 74          	and    %dh,0x74(%bp,%di)
 10063ac:	61                   	popa   
 10063ad:	74 69                	je     1006418 <ELF_IDENT+0x6d4>
 10063af:	6f                   	outsl  %ds:(%esi),(%dx)
 10063b0:	6e                   	outsb  %ds:(%esi),(%dx)
 10063b1:	00 50 72             	add    %dl,0x72(%eax)
 10063b4:	6f                   	outsl  %ds:(%esi),(%dx)
 10063b5:	63 65 73             	arpl   %sp,0x73(%ebp)
 10063b8:	73 6f                	jae    1006429 <ELF_IDENT+0x6e5>
 10063ba:	72 00                	jb     10063bc <ELF_IDENT+0x678>
 10063bc:	53                   	push   %ebx
 10063bd:	65 72 69             	gs jb  1006429 <ELF_IDENT+0x6e5>
 10063c0:	61                   	popa   
 10063c1:	6c                   	insb   (%dx),%es:(%edi)
 10063c2:	20 62 75             	and    %ah,0x75(%edx)
 10063c5:	73 20                	jae    10063e7 <ELF_IDENT+0x6a3>
 10063c7:	63 6f 6e             	arpl   %bp,0x6e(%edi)
 10063ca:	74 72                	je     100643e <ELF_IDENT+0x6fa>
 10063cc:	6f                   	outsl  %ds:(%esi),(%dx)
 10063cd:	6c                   	insb   (%dx),%es:(%edi)
 10063ce:	6c                   	insb   (%dx),%es:(%edi)
 10063cf:	65 72 00             	gs jb  10063d2 <ELF_IDENT+0x68e>
 10063d2:	57                   	push   %edi
 10063d3:	69 72 65 6c 65 73 73 	imul   $0x7373656c,0x65(%edx),%esi
 10063da:	20 63 6f             	and    %ah,0x6f(%ebx)
 10063dd:	6e                   	outsb  %ds:(%esi),(%dx)
 10063de:	74 72                	je     1006452 <ELF_IDENT+0x70e>
 10063e0:	6f                   	outsl  %ds:(%esi),(%dx)
 10063e1:	6c                   	insb   (%dx),%es:(%edi)
 10063e2:	6c                   	insb   (%dx),%es:(%edi)
 10063e3:	65 72 00             	gs jb  10063e6 <ELF_IDENT+0x6a2>
 10063e6:	49                   	dec    %ecx
 10063e7:	6e                   	outsb  %ds:(%esi),(%dx)
 10063e8:	74 65                	je     100644f <ELF_IDENT+0x70b>
 10063ea:	6c                   	insb   (%dx),%es:(%edi)
 10063eb:	6c                   	insb   (%dx),%es:(%edi)
 10063ec:	69 67 65 6e 74 20 63 	imul   $0x6320746e,0x65(%edi),%esp
 10063f3:	6f                   	outsl  %ds:(%esi),(%dx)
 10063f4:	6e                   	outsb  %ds:(%esi),(%dx)
 10063f5:	74 72                	je     1006469 <ELF_IDENT+0x725>
 10063f7:	6f                   	outsl  %ds:(%esi),(%dx)
 10063f8:	6c                   	insb   (%dx),%es:(%edi)
 10063f9:	6c                   	insb   (%dx),%es:(%edi)
 10063fa:	65 72 00             	gs jb  10063fd <ELF_IDENT+0x6b9>
 10063fd:	00 00                	add    %al,(%eax)
 10063ff:	00 53 61             	add    %dl,0x61(%ebx)
 1006402:	74 65                	je     1006469 <ELF_IDENT+0x725>
 1006404:	6c                   	insb   (%dx),%es:(%edi)
 1006405:	6c                   	insb   (%dx),%es:(%edi)
 1006406:	69 74 65 20 63 6f 6d 	imul   $0x6d6d6f63,0x20(%ebp,%eiz,2),%esi
 100640d:	6d 
 100640e:	75 6e                	jne    100647e <ELF_IDENT+0x73a>
 1006410:	69 63 61 74 69 6f 6e 	imul   $0x6e6f6974,0x61(%ebx),%esp
 1006417:	73 20                	jae    1006439 <ELF_IDENT+0x6f5>
 1006419:	63 6f 6e             	arpl   %bp,0x6e(%edi)
 100641c:	74 72                	je     1006490 <ELF_IDENT+0x74c>
 100641e:	6f                   	outsl  %ds:(%esi),(%dx)
 100641f:	6c                   	insb   (%dx),%es:(%edi)
 1006420:	6c                   	insb   (%dx),%es:(%edi)
 1006421:	65 72 00             	gs jb  1006424 <ELF_IDENT+0x6e0>
 1006424:	45                   	inc    %ebp
 1006425:	6e                   	outsb  %ds:(%esi),(%dx)
 1006426:	63 72 79             	arpl   %si,0x79(%edx)
 1006429:	70 74                	jo     100649f <ELF_IDENT+0x75b>
 100642b:	69 6f 6e 20 63 6f 6e 	imul   $0x6e6f6320,0x6e(%edi),%ebp
 1006432:	74 72                	je     10064a6 <ELF_IDENT+0x762>
 1006434:	6f                   	outsl  %ds:(%esi),(%dx)
 1006435:	6c                   	insb   (%dx),%es:(%edi)
 1006436:	6c                   	insb   (%dx),%es:(%edi)
 1006437:	65 72 00             	gs jb  100643a <ELF_IDENT+0x6f6>
 100643a:	53                   	push   %ebx
 100643b:	69 67 6e 61 6c 20 70 	imul   $0x70206c61,0x6e(%edi),%esp
 1006442:	72 6f                	jb     10064b3 <ELF_IDENT+0x76f>
 1006444:	63 65 73             	arpl   %sp,0x73(%ebp)
 1006447:	73 69                	jae    10064b2 <ELF_IDENT+0x76e>
 1006449:	6e                   	outsb  %ds:(%esi),(%dx)
 100644a:	67 20 63 6f          	and    %ah,0x6f(%bp,%di)
 100644e:	6e                   	outsb  %ds:(%esi),(%dx)
 100644f:	74 72                	je     10064c3 <ELF_IDENT+0x77f>
 1006451:	6f                   	outsl  %ds:(%esi),(%dx)
 1006452:	6c                   	insb   (%dx),%es:(%edi)
 1006453:	6c                   	insb   (%dx),%es:(%edi)
 1006454:	65 72 00             	gs jb  1006457 <ELF_IDENT+0x713>
 1006457:	50                   	push   %eax
 1006458:	72 6f                	jb     10064c9 <ELF_IDENT+0x785>
 100645a:	63 65 73             	arpl   %sp,0x73(%ebp)
 100645d:	73 69                	jae    10064c8 <ELF_IDENT+0x784>
 100645f:	6e                   	outsb  %ds:(%esi),(%dx)
 1006460:	67 20 61 63          	and    %ah,0x63(%bx,%di)
 1006464:	63 65 6c             	arpl   %sp,0x6c(%ebp)
 1006467:	65 72 61             	gs jb  10064cb <ELF_IDENT+0x787>
 100646a:	74 6f                	je     10064db <ELF_IDENT+0x797>
 100646c:	72 73                	jb     10064e1 <ELF_IDENT+0x79d>
 100646e:	00 4e 6f             	add    %cl,0x6f(%esi)
 1006471:	6e                   	outsb  %ds:(%esi),(%dx)
 1006472:	2d 45 73 73 65       	sub    $0x65737345,%eax
 1006477:	6e                   	outsb  %ds:(%esi),(%dx)
 1006478:	74 69                	je     10064e3 <ELF_IDENT+0x79f>
 100647a:	61                   	popa   
 100647b:	6c                   	insb   (%dx),%es:(%edi)
 100647c:	20 49 6e             	and    %cl,0x6e(%ecx)
 100647f:	73 74                	jae    10064f5 <ELF_IDENT+0x7b1>
 1006481:	72 75                	jb     10064f8 <ELF_IDENT+0x7b4>
 1006483:	6d                   	insl   (%dx),%es:(%edi)
 1006484:	65 6e                	outsb  %gs:(%esi),(%dx)
 1006486:	74 61                	je     10064e9 <ELF_IDENT+0x7a5>
 1006488:	74 69                	je     10064f3 <ELF_IDENT+0x7af>
 100648a:	6f                   	outsl  %ds:(%esi),(%dx)
 100648b:	6e                   	outsb  %ds:(%esi),(%dx)
 100648c:	00 43 6f             	add    %al,0x6f(%ebx)
 100648f:	70 72                	jo     1006503 <ELF_IDENT+0x7bf>
 1006491:	6f                   	outsl  %ds:(%esi),(%dx)
 1006492:	63 65 73             	arpl   %sp,0x73(%ebp)
 1006495:	73 6f                	jae    1006506 <ELF_IDENT+0x7c2>
 1006497:	72 00                	jb     1006499 <ELF_IDENT+0x755>
 1006499:	55                   	push   %ebp
 100649a:	6e                   	outsb  %ds:(%esi),(%dx)
 100649b:	61                   	popa   
 100649c:	73 73                	jae    1006511 <ELF_IDENT+0x7cd>
 100649e:	69 67 6e 65 64 20 63 	imul   $0x63206465,0x6e(%edi),%esp
 10064a5:	6c                   	insb   (%dx),%es:(%edi)
 10064a6:	61                   	popa   
 10064a7:	73 73                	jae    100651c <ELF_IDENT+0x7d8>
 10064a9:	00 4e 75             	add    %cl,0x75(%esi)
 10064ac:	6c                   	insb   (%dx),%es:(%edi)
 10064ad:	6c                   	insb   (%dx),%es:(%edi)
 10064ae:	00 4e 6f             	add    %cl,0x6f(%esi)
 10064b1:	20 4d 61             	and    %cl,0x61(%ebp)
 10064b4:	63 68 69             	arpl   %bp,0x69(%eax)
 10064b7:	6e                   	outsb  %ds:(%esi),(%dx)
 10064b8:	65 0a 00             	or     %gs:(%eax),%al
 10064bb:	41                   	inc    %ecx
 10064bc:	54                   	push   %esp
 10064bd:	26 54                	es push %esp
 10064bf:	20 57 45             	and    %dl,0x45(%edi)
 10064c2:	20 33                	and    %dh,(%ebx)
 10064c4:	32 31                	xor    (%ecx),%dh
 10064c6:	30 30                	xor    %dh,(%eax)
 10064c8:	0a 00                	or     (%eax),%al
 10064ca:	53                   	push   %ebx
 10064cb:	50                   	push   %eax
 10064cc:	41                   	inc    %ecx
 10064cd:	52                   	push   %edx
 10064ce:	43                   	inc    %ebx
 10064cf:	0a 00                	or     (%eax),%al
 10064d1:	49                   	dec    %ecx
 10064d2:	6e                   	outsb  %ds:(%esi),(%dx)
 10064d3:	74 65                	je     100653a <ELF_IDENT+0x7f6>
 10064d5:	6c                   	insb   (%dx),%es:(%edi)
 10064d6:	20 38                	and    %bh,(%eax)
 10064d8:	30 33                	xor    %dh,(%ebx)
 10064da:	38 36                	cmp    %dh,(%esi)
 10064dc:	0a 00                	or     (%eax),%al
 10064de:	4d                   	dec    %ebp
 10064df:	6f                   	outsl  %ds:(%esi),(%dx)
 10064e0:	74 6f                	je     1006551 <ELF_IDENT+0x80d>
 10064e2:	72 6f                	jb     1006553 <ELF_IDENT+0x80f>
 10064e4:	6c                   	insb   (%dx),%es:(%edi)
 10064e5:	61                   	popa   
 10064e6:	20 36                	and    %dh,(%esi)
 10064e8:	38 30                	cmp    %dh,(%eax)
 10064ea:	30 30                	xor    %dh,(%eax)
 10064ec:	0a 00                	or     (%eax),%al
 10064ee:	4d                   	dec    %ebp
 10064ef:	6f                   	outsl  %ds:(%esi),(%dx)
 10064f0:	74 6f                	je     1006561 <ELF_IDENT+0x81d>
 10064f2:	72 6f                	jb     1006563 <ELF_IDENT+0x81f>
 10064f4:	6c                   	insb   (%dx),%es:(%edi)
 10064f5:	61                   	popa   
 10064f6:	20 38                	and    %bh,(%eax)
 10064f8:	38 30                	cmp    %dh,(%eax)
 10064fa:	30 30                	xor    %dh,(%eax)
 10064fc:	0a 00                	or     (%eax),%al
 10064fe:	49                   	dec    %ecx
 10064ff:	6e                   	outsb  %ds:(%esi),(%dx)
 1006500:	74 65                	je     1006567 <ELF_IDENT+0x823>
 1006502:	6c                   	insb   (%dx),%es:(%edi)
 1006503:	20 38                	and    %bh,(%eax)
 1006505:	30 38                	xor    %bh,(%eax)
 1006507:	36 30 0a             	xor    %cl,%ss:(%edx)
 100650a:	00 4d 49             	add    %cl,0x49(%ebp)
 100650d:	50                   	push   %eax
 100650e:	53                   	push   %ebx
 100650f:	20 52 53             	and    %dl,0x53(%edx)
 1006512:	33 30                	xor    (%eax),%esi
 1006514:	30 30                	xor    %dh,(%eax)
 1006516:	0a 00                	or     (%eax),%al
 1006518:	55                   	push   %ebp
 1006519:	6e                   	outsb  %ds:(%esi),(%dx)
 100651a:	64 65 66 69 6e 65 64 	fs imul $0xa64,%gs:0x65(%esi),%bp
 1006521:	0a 
 1006522:	00 00                	add    %al,(%eax)
 1006524:	25 23 00 01 3a       	and    $0x3a010023,%eax
 1006529:	23 00                	and    (%eax),%eax
 100652b:	01 4c 23 00          	add    %ecx,0x0(%ebx,%eiz,1)
 100652f:	01 5e 23             	add    %ebx,0x23(%esi)
 1006532:	00 01                	add    %al,(%ecx)
 1006534:	70 23                	jo     1006559 <ELF_IDENT+0x815>
 1006536:	00 01                	add    %al,(%ecx)
 1006538:	82                   	(bad)  
 1006539:	23 00                	and    (%eax),%eax
 100653b:	01 b8 23 00 01 94    	add    %edi,-0x6bfeffdd(%eax)
 1006541:	23 00                	and    (%eax),%eax
 1006543:	01 a6 23 00 01 0a    	add    %esp,0xa010023(%esi)
 1006549:	45                   	inc    %ebp
 100654a:	4c                   	dec    %esp
 100654b:	46                   	inc    %esi
 100654c:	20 78 36             	and    %bh,0x36(%eax)
 100654f:	34 20                	xor    $0x20,%al
 1006551:	6e                   	outsb  %ds:(%esi),(%dx)
 1006552:	6f                   	outsl  %ds:(%esi),(%dx)
 1006553:	74 20                	je     1006575 <ELF_IDENT+0x831>
 1006555:	73 75                	jae    10065cc <ELF_IDENT+0x888>
 1006557:	70 70                	jo     10065c9 <ELF_IDENT+0x885>
 1006559:	6f                   	outsl  %ds:(%esi),(%dx)
 100655a:	72 74                	jb     10065d0 <ELF_IDENT+0x88c>
 100655c:	65 64 00 46 6f       	gs add %al,%fs:0x6f(%esi)
 1006561:	72 6d                	jb     10065d0 <ELF_IDENT+0x88c>
 1006563:	61                   	popa   
 1006564:	74 3a                	je     10065a0 <ELF_IDENT+0x85c>
 1006566:	20 00                	and    %al,(%eax)
 1006568:	20 78 33             	and    %bh,0x33(%eax)
 100656b:	32 00                	xor    (%eax),%al
 100656d:	0a 56 65             	or     0x65(%esi),%dl
 1006570:	72 73                	jb     10065e5 <ELF_IDENT+0x8a1>
 1006572:	69 6f 6e 3a 20 30 78 	imul   $0x7830203a,0x6e(%edi),%ebp
 1006579:	00 2e                	add    %ch,(%esi)
 100657b:	00 0a                	add    %cl,(%edx)
 100657d:	45                   	inc    %ebp
 100657e:	6e                   	outsb  %ds:(%esi),(%dx)
 100657f:	74 72                	je     10065f3 <ELF_IDENT+0x8af>
 1006581:	79 20                	jns    10065a3 <ELF_IDENT+0x85f>
 1006583:	70 6f                	jo     10065f4 <ELF_IDENT+0x8b0>
 1006585:	69 6e 74 3a 20 30 78 	imul   $0x7830203a,0x74(%esi),%ebp
 100658c:	00 0a                	add    %cl,(%edx)
 100658e:	0a 54 61 62          	or     0x62(%ecx,%eiz,2),%dl
 1006592:	6c                   	insb   (%dx),%es:(%edi)
 1006593:	65 20 62 61          	and    %ah,%gs:0x61(%edx)
 1006597:	73 65                	jae    10065fe <ELF_IDENT+0x8ba>
 1006599:	3a 20                	cmp    (%eax),%ah
 100659b:	30 78 00             	xor    %bh,0x0(%eax)
 100659e:	0a 54 61 62          	or     0x62(%ecx,%eiz,2),%dl
 10065a2:	6c                   	insb   (%dx),%es:(%edi)
 10065a3:	65 20 4c 6f 66       	and    %cl,%gs:0x66(%edi,%ebp,2)
 10065a8:	66 73 65             	data16 jae 1006610 <ELF_IDENT+0x8cc>
 10065ab:	74 3a                	je     10065e7 <ELF_IDENT+0x8a3>
 10065ad:	20 30                	and    %dh,(%eax)
 10065af:	78 00                	js     10065b1 <ELF_IDENT+0x86d>
 10065b1:	0a 54 61 62          	or     0x62(%ecx,%eiz,2),%dl
 10065b5:	6c                   	insb   (%dx),%es:(%edi)
 10065b6:	65 20 47 6f          	and    %al,%gs:0x6f(%edi)
 10065ba:	66 66 73 65          	data16 data16 jae 1006623 <ELF_IDENT+0x8df>
 10065be:	74 3a                	je     10065fa <ELF_IDENT+0x8b6>
 10065c0:	20 30                	and    %dh,(%eax)
 10065c2:	78 00                	js     10065c4 <ELF_IDENT+0x880>
 10065c4:	0a 73 68             	or     0x68(%ebx),%dh
 10065c7:	74 72                	je     100663b <ELF_IDENT+0x8f7>
 10065c9:	6e                   	outsb  %ds:(%esi),(%dx)
 10065ca:	64 78 3a             	fs js  1006607 <ELF_IDENT+0x8c3>
 10065cd:	20 30                	and    %dh,(%eax)
 10065cf:	78 00                	js     10065d1 <ELF_IDENT+0x88d>
 10065d1:	0a 2d 2d 2d 2d 2d    	or     0x2d2d2d2d,%ch
 10065d7:	2d 2d 2d 2d 2d       	sub    $0x2d2d2d2d,%eax
 10065dc:	2d 2d 2d 2d 2d       	sub    $0x2d2d2d2d,%eax
 10065e1:	2d 2d 2d 2d 0a       	sub    $0xa2d2d2d,%eax
 10065e6:	00 46 69             	add    %al,0x69(%esi)
 10065e9:	6c                   	insb   (%dx),%es:(%edi)
 10065ea:	65 20 66 6f          	and    %ah,%gs:0x6f(%esi)
 10065ee:	72 6d                	jb     100665d <ELF_IDENT+0x919>
 10065f0:	61                   	popa   
 10065f1:	74 20                	je     1006613 <ELF_IDENT+0x8cf>
 10065f3:	6e                   	outsb  %ds:(%esi),(%dx)
 10065f4:	6f                   	outsl  %ds:(%esi),(%dx)
 10065f5:	74 20                	je     1006617 <ELF_IDENT+0x8d3>
 10065f7:	73 75                	jae    100666e <ELF_IDENT+0x92a>
 10065f9:	70 70                	jo     100666b <ELF_IDENT+0x927>
 10065fb:	6f                   	outsl  %ds:(%esi),(%dx)
 10065fc:	72 74                	jb     1006672 <ELF_IDENT+0x92e>
 10065fe:	65 64 00 46 41       	gs add %al,%fs:0x41(%esi)
 1006603:	54                   	push   %esp
 1006604:	33 32                	xor    (%edx),%esi
 1006606:	3f                   	aas    
 1006607:	46                   	inc    %esi
 1006608:	41                   	inc    %ecx
 1006609:	54                   	push   %esp
 100660a:	31 36                	xor    %esi,(%esi)
 100660c:	3f                   	aas    
 100660d:	21 00                	and    %eax,(%eax)
 100660f:	0a 42 61             	or     0x61(%edx),%al
 1006612:	73 65                	jae    1006679 <ELF_IDENT+0x935>
 1006614:	20 00                	and    %al,(%eax)
 1006616:	0a 6c 6f 6e          	or     0x6e(%edi,%ebp,2),%ch
 100661a:	67 20 00             	and    %al,(%bx,%si)
 100661d:	0a 66 69             	or     0x69(%esi),%ah
 1006620:	6c                   	insb   (%dx),%es:(%edi)
 1006621:	65 20 6e 6f          	and    %ch,%gs:0x6f(%esi)
 1006625:	74 20                	je     1006647 <ELF_IDENT+0x903>
 1006627:	66 6f                	outsw  %ds:(%esi),(%dx)
 1006629:	75 6e                	jne    1006699 <ELF_IDENT+0x955>
 100662b:	64 00 0a             	add    %cl,%fs:(%edx)
 100662e:	55                   	push   %ebp
 100662f:	6e                   	outsb  %ds:(%esi),(%dx)
 1006630:	73 75                	jae    10066a7 <ELF_IDENT+0x963>
 1006632:	70 70                	jo     10066a4 <ELF_IDENT+0x960>
 1006634:	6f                   	outsl  %ds:(%esi),(%dx)
 1006635:	72 74                	jb     10066ab <ELF_IDENT+0x967>
 1006637:	65 64 20 46 69       	gs and %al,%fs:0x69(%esi)
 100663c:	6c                   	insb   (%dx),%es:(%edi)
 100663d:	65 53                	gs push %ebx
 100663f:	79 73                	jns    10066b4 <ELF_IDENT+0x970>
 1006641:	74 65                	je     10066a8 <ELF_IDENT+0x964>
 1006643:	6d                   	insl   (%dx),%es:(%edi)
 1006644:	00 74 72 75          	add    %dh,0x75(%edx,%esi,2)
 1006648:	65 0a 00             	or     %gs:(%eax),%al
 100664b:	0a 4d 65             	or     0x65(%ebp),%cl
 100664e:	6d                   	insl   (%dx),%es:(%edi)
 100664f:	6f                   	outsl  %ds:(%esi),(%dx)
 1006650:	72 79                	jb     10066cb <ELF_IDENT+0x987>
 1006652:	20 6c 69 73          	and    %ch,0x73(%ecx,%ebp,2)
 1006656:	74 00                	je     1006658 <ELF_IDENT+0x914>
 1006658:	0a 30                	or     (%eax),%dh
 100665a:	78 00                	js     100665c <ELF_IDENT+0x918>
 100665c:	20 2d 2d 20 30 78    	and    %ch,0x7830202d
 1006662:	00 20                	add    %ah,(%eax)
 1006664:	28 30                	sub    %dh,(%eax)
 1006666:	78 00                	js     1006668 <ELF_IDENT+0x924>
 1006668:	29 20                	sub    %esp,(%eax)
 100666a:	4b                   	dec    %ebx
 100666b:	42                   	inc    %edx
 100666c:	09 00                	or     %eax,(%eax)
 100666e:	00 00                	add    %al,(%eax)
 1006670:	0a 4d 4d             	or     0x4d(%ebp),%cl
 1006673:	55                   	push   %ebp
 1006674:	20 2d 3e 20 53 65    	and    %ch,0x6553203e
 100667a:	74 20                	je     100669c <ELF_IDENT+0x958>
 100667c:	4d                   	dec    %ebp
 100667d:	65 6d                	gs insl (%dx),%es:(%edi)
 100667f:	20 4d 61             	and    %cl,0x61(%ebp)
 1006682:	70 0a                	jo     100668e <ELF_IDENT+0x94a>
 1006684:	4d                   	dec    %ebp
 1006685:	65 6d                	gs insl (%dx),%es:(%edi)
 1006687:	6f                   	outsl  %ds:(%esi),(%dx)
 1006688:	72 79                	jb     1006703 <ELF_IDENT+0x9bf>
 100668a:	20 45 72             	and    %al,0x72(%ebp)
 100668d:	72 6f                	jb     10066fe <ELF_IDENT+0x9ba>
 100668f:	72 0a                	jb     100669b <ELF_IDENT+0x957>
 1006691:	00 0a                	add    %cl,(%edx)
 1006693:	48                   	dec    %eax
 1006694:	46                   	inc    %esi
 1006695:	46                   	inc    %esi
 1006696:	54                   	push   %esp
 1006697:	20 65 6e             	and    %ah,0x6e(%ebp)
 100669a:	64 6c                	fs insb (%dx),%es:(%edi)
 100669c:	65 73 73             	gs jae 1006712 <ELF_IDENT+0x9ce>
 100669f:	20 45 72             	and    %al,0x72(%ebp)
 10066a2:	72 6f                	jb     1006713 <ELF_IDENT+0x9cf>
 10066a4:	72 0a                	jb     10066b0 <ELF_IDENT+0x96c>
 10066a6:	00 00                	add    %al,(%eax)
 10066a8:	0a 4d 4d             	or     0x4d(%ebp),%cl
 10066ab:	55                   	push   %ebp
 10066ac:	20 2d 3e 20 6d 61    	and    %ch,0x616d203e
 10066b2:	6c                   	insb   (%dx),%es:(%edi)
 10066b3:	6c                   	insb   (%dx),%es:(%edi)
 10066b4:	6f                   	outsl  %ds:(%esi),(%dx)
 10066b5:	63 0a                	arpl   %cx,(%edx)
 10066b7:	4d                   	dec    %ebp
 10066b8:	65 6d                	gs insl (%dx),%es:(%edi)
 10066ba:	6f                   	outsl  %ds:(%esi),(%dx)
 10066bb:	72 79                	jb     1006736 <ELF_IDENT+0x9f2>
 10066bd:	20 69 73             	and    %ch,0x73(%ecx)
 10066c0:	20 63 6f             	and    %ah,0x6f(%ebx)
 10066c3:	6d                   	insl   (%dx),%es:(%edi)
 10066c4:	70 6c                	jo     1006732 <ELF_IDENT+0x9ee>
 10066c6:	65 74 65             	gs je  100672e <ELF_IDENT+0x9ea>
 10066c9:	64 2e 0a 46 61       	fs or  %cs:0x61(%esi),%al
 10066ce:	74 61                	je     1006731 <ELF_IDENT+0x9ed>
 10066d0:	6c                   	insb   (%dx),%es:(%edi)
 10066d1:	20 45 72             	and    %al,0x72(%ebp)
 10066d4:	72 6f                	jb     1006745 <ELF_IDENT+0xa01>
 10066d6:	72 2e                	jb     1006706 <ELF_IDENT+0x9c2>
 10066d8:	2e 2e 0a 00          	cs or  %cs:(%eax),%al
 10066dc:	0a 46 69             	or     0x69(%esi),%al
 10066df:	6c                   	insb   (%dx),%es:(%edi)
 10066e0:	65 20 6e 6f          	and    %ch,%gs:0x6f(%esi)
 10066e4:	74 20                	je     1006706 <ELF_IDENT+0x9c2>
 10066e6:	66 6f                	outsw  %ds:(%esi),(%dx)
 10066e8:	75 6e                	jne    1006758 <ELF_IDENT+0xa14>
 10066ea:	64 00 0a             	add    %cl,%fs:(%edx)
 10066ed:	09 09                	or     %ecx,(%ecx)
 10066ef:	09 20                	or     %esp,(%eax)
 10066f1:	20 54 41 53          	and    %dl,0x53(%ecx,%eax,2)
 10066f5:	4b                   	dec    %ebx
 10066f6:	20 4d 41             	and    %cl,0x41(%ebp)
 10066f9:	4e                   	dec    %esi
 10066fa:	41                   	inc    %ecx
 10066fb:	47                   	inc    %edi
 10066fc:	45                   	inc    %ebp
 10066fd:	52                   	push   %edx
 10066fe:	09 20                	or     %esp,(%eax)
 1006700:	20 7c 20 20          	and    %bh,0x20(%eax,%eiz,1)
 1006704:	4d                   	dec    %ebp
 1006705:	61                   	popa   
 1006706:	78 20                	js     1006728 <ELF_IDENT+0x9e4>
 1006708:	54                   	push   %esp
 1006709:	61                   	popa   
 100670a:	73 6b                	jae    1006777 <ELF_IDENT+0xa33>
 100670c:	3a 20                	cmp    (%eax),%ah
 100670e:	00 00                	add    %al,(%eax)
 1006710:	0a 2d 2d 2d 2d 2d    	or     0x2d2d2d2d,%ch
 1006716:	2d 2d 2d 2d 2d       	sub    $0x2d2d2d2d,%eax
 100671b:	2d 2d 2d 2d 2d       	sub    $0x2d2d2d2d,%eax
 1006720:	2d 2d 2d 2d 2d       	sub    $0x2d2d2d2d,%eax
 1006725:	2d 2d 2d 2d 2d       	sub    $0x2d2d2d2d,%eax
 100672a:	2d 2d 2d 2d 2d       	sub    $0x2d2d2d2d,%eax
 100672f:	2d 2d 2d 2d 2d       	sub    $0x2d2d2d2d,%eax
 1006734:	2d 2d 2d 2d 2d       	sub    $0x2d2d2d2d,%eax
 1006739:	2d 2d 2d 2d 2d       	sub    $0x2d2d2d2d,%eax
 100673e:	2d 2d 2d 2d 2d       	sub    $0x2d2d2d2d,%eax
 1006743:	2d 2d 2d 2d 2d       	sub    $0x2d2d2d2d,%eax
 1006748:	2d 2d 2d 2d 2d       	sub    $0x2d2d2d2d,%eax
 100674d:	2d 2d 2d 2d 2d       	sub    $0x2d2d2d2d,%eax
 1006752:	2d 2d 2d 2d 2d       	sub    $0x2d2d2d2d,%eax
 1006757:	2d 2d 2d 2d 2d       	sub    $0x2d2d2d2d,%eax
 100675c:	2d 2d 2d 2d 2d       	sub    $0x2d2d2d2d,%eax
 1006761:	00 00                	add    %al,(%eax)
 1006763:	00 20                	add    %ah,(%eax)
 1006765:	20 50 49             	and    %dl,0x49(%eax)
 1006768:	44                   	inc    %esp
 1006769:	20 20                	and    %ah,(%eax)
 100676b:	7c 20                	jl     100678d <ELF_IDENT+0xa49>
 100676d:	53                   	push   %ebx
 100676e:	74 61                	je     10067d1 <ELF_IDENT+0xa8d>
 1006770:	74 75                	je     10067e7 <ELF_IDENT+0xaa3>
 1006772:	73 20                	jae    1006794 <ELF_IDENT+0xa50>
 1006774:	7c 20                	jl     1006796 <ELF_IDENT+0xa52>
 1006776:	20 20                	and    %ah,(%eax)
 1006778:	20 20                	and    %ah,(%eax)
 100677a:	45                   	inc    %ebp
 100677b:	49                   	dec    %ecx
 100677c:	50                   	push   %eax
 100677d:	20 20                	and    %ah,(%eax)
 100677f:	20 20                	and    %ah,(%eax)
 1006781:	20 7c 20 20          	and    %bh,0x20(%eax,%eiz,1)
 1006785:	20 45 46             	and    %al,0x46(%ebp)
 1006788:	4c                   	dec    %esp
 1006789:	41                   	inc    %ecx
 100678a:	47                   	inc    %edi
 100678b:	53                   	push   %ebx
 100678c:	20 20                	and    %ah,(%eax)
 100678e:	20 7c 20 20          	and    %bh,0x20(%eax,%eiz,1)
 1006792:	4c                   	dec    %esp
 1006793:	49                   	dec    %ecx
 1006794:	4e                   	dec    %esi
 1006795:	4b                   	dec    %ebx
 1006796:	20 20                	and    %ah,(%eax)
 1006798:	7c 20                	jl     10067ba <ELF_IDENT+0xa76>
 100679a:	20 20                	and    %ah,(%eax)
 100679c:	4e                   	dec    %esi
 100679d:	43                   	inc    %ebx
 100679e:	79 63                	jns    1006803 <ELF_IDENT+0xabf>
 10067a0:	6c                   	insb   (%dx),%es:(%edi)
 10067a1:	65 73 20             	gs jae 10067c4 <ELF_IDENT+0xa80>
 10067a4:	20 20                	and    %ah,(%eax)
 10067a6:	7c 20                	jl     10067c8 <ELF_IDENT+0xa84>
 10067a8:	50                   	push   %eax
 10067a9:	72 69                	jb     1006814 <ELF_IDENT+0xad0>
 10067ab:	6f                   	outsl  %ds:(%esi),(%dx)
 10067ac:	72 69                	jb     1006817 <ELF_IDENT+0xad3>
 10067ae:	74 79                	je     1006829 <ELF_IDENT+0xae5>
 10067b0:	20 7c 00 00          	and    %bh,0x0(%eax,%eax,1)
 10067b4:	0a 2d 2d 2d 2d 2d    	or     0x2d2d2d2d,%ch
 10067ba:	2d 2d 2d 2d 2d       	sub    $0x2d2d2d2d,%eax
 10067bf:	2d 2d 2d 2d 2d       	sub    $0x2d2d2d2d,%eax
 10067c4:	2d 2d 2d 2d 2d       	sub    $0x2d2d2d2d,%eax
 10067c9:	2d 2d 2d 2d 2d       	sub    $0x2d2d2d2d,%eax
 10067ce:	2d 2d 2d 2d 2d       	sub    $0x2d2d2d2d,%eax
 10067d3:	2d 2d 2d 2d 2d       	sub    $0x2d2d2d2d,%eax
 10067d8:	2d 2d 2d 2d 2d       	sub    $0x2d2d2d2d,%eax
 10067dd:	2d 2d 2d 2d 2d       	sub    $0x2d2d2d2d,%eax
 10067e2:	2d 2d 2d 2d 2d       	sub    $0x2d2d2d2d,%eax
 10067e7:	2d 2d 2d 2d 2d       	sub    $0x2d2d2d2d,%eax
 10067ec:	2d 2d 2d 2d 2d       	sub    $0x2d2d2d2d,%eax
 10067f1:	2d 2d 2d 2d 2d       	sub    $0x2d2d2d2d,%eax
 10067f6:	2d 2d 2d 2d 2d       	sub    $0x2d2d2d2d,%eax
 10067fb:	2d 2d 2d 2d 2d       	sub    $0x2d2d2d2d,%eax
 1006800:	2d 2d 2d 2d 2d       	sub    $0x2d2d2d2d,%eax
 1006805:	20 20                	and    %ah,(%eax)
 1006807:	00 20                	add    %ah,(%eax)
 1006809:	20 20                	and    %ah,(%eax)
 100680b:	46                   	inc    %esi
 100680c:	72 6f                	jb     100687d <ELF_IDENT+0xb39>
 100680e:	7a 65                	jp     1006875 <ELF_IDENT+0xb31>
 1006810:	6e                   	outsb  %ds:(%esi),(%dx)
 1006811:	20 20                	and    %ah,(%eax)
 1006813:	20 30                	and    %dh,(%eax)
 1006815:	78 00                	js     1006817 <ELF_IDENT+0xad3>
 1006817:	20 20                	and    %ah,(%eax)
 1006819:	20 20                	and    %ah,(%eax)
 100681b:	57                   	push   %edi
 100681c:	6f                   	outsl  %ds:(%esi),(%dx)
 100681d:	72 6b                	jb     100688a <ELF_IDENT+0xb46>
 100681f:	20 20                	and    %ah,(%eax)
 1006821:	20 20                	and    %ah,(%eax)
 1006823:	30 78 00             	xor    %bh,0x0(%eax)
 1006826:	20 20                	and    %ah,(%eax)
 1006828:	20 43 6c             	and    %al,0x6c(%ebx)
 100682b:	6f                   	outsl  %ds:(%esi),(%dx)
 100682c:	73 65                	jae    1006893 <ELF_IDENT+0xb4f>
 100682e:	20 20                	and    %ah,(%eax)
 1006830:	20 20                	and    %ah,(%eax)
 1006832:	30 78 00             	xor    %bh,0x0(%eax)
 1006835:	20 20                	and    %ah,(%eax)
 1006837:	20 20                	and    %ah,(%eax)
 1006839:	20 00                	and    %al,(%eax)
 100683b:	20 20                	and    %ah,(%eax)
 100683d:	20 00                	and    %al,(%eax)
 100683f:	20 20                	and    %ah,(%eax)
 1006841:	20 20                	and    %ah,(%eax)
 1006843:	00 20                	add    %ah,(%eax)
 1006845:	48                   	dec    %eax
 1006846:	69 67 68 00 20 4c 6f 	imul   $0x6f4c2000,0x68(%edi),%esp
 100684d:	77 00                	ja     100684f <ELF_IDENT+0xb0b>
 100684f:	4e                   	dec    %esi
 1006850:	6f                   	outsl  %ds:(%esi),(%dx)
 1006851:	72 6d                	jb     10068c0 <ELF_IDENT+0xb7c>
 1006853:	61                   	popa   
 1006854:	6c                   	insb   (%dx),%es:(%edi)
 1006855:	00 55 6e             	add    %dl,0x6e(%ebp)
 1006858:	72 65                	jb     10068bf <ELF_IDENT+0xb7b>
 100685a:	61                   	popa   
 100685b:	6c                   	insb   (%dx),%es:(%edi)
 100685c:	00 0a                	add    %cl,(%edx)
 100685e:	20 20                	and    %ah,(%eax)
 1006860:	00 2f                	add    %ch,(%edi)
 1006862:	6d                   	insl   (%dx),%es:(%edi)
 1006863:	67 72 2f             	addr16 jb 1006895 <ELF_IDENT+0xb51>
 1006866:	64 69 73 70 6c 61 79 	imul   $0x2f79616c,%fs:0x70(%ebx),%esi
 100686d:	2f 
 100686e:	69 6e 69 74 2e 6d 67 	imul   $0x676d2e74,0x69(%esi),%ebp
 1006875:	72 00                	jb     1006877 <ELF_IDENT+0xb33>
 1006877:	4c                   	dec    %esp
 1006878:	6f                   	outsl  %ds:(%esi),(%dx)
 1006879:	61                   	popa   
 100687a:	64 65 64 20 53 79    	fs gs and %dl,%fs:0x79(%ebx)
 1006880:	73 74                	jae    10068f6 <ELF_IDENT+0xbb2>
 1006882:	65 6d                	gs insl (%dx),%es:(%edi)
 1006884:	0a 00                	or     (%eax),%al
 1006886:	46                   	inc    %esi
 1006887:	41                   	inc    %ecx
 1006888:	54                   	push   %esp
 1006889:	41                   	inc    %ecx
 100688a:	4c                   	dec    %esp
 100688b:	20 45 52             	and    %al,0x52(%ebp)
 100688e:	52                   	push   %edx
 100688f:	4f                   	dec    %edi
 1006890:	52                   	push   %edx
 1006891:	0a 00                	or     (%eax),%al
	...

Disassembly of section .bss:

01007000 <__bss>:
	...

01008000 <_Stack_down>:
 1008000:	00 00                	add    %al,(%eax)
	...

01008004 <Display_color>:
 1008004:	00 00                	add    %al,(%eax)
	...

01008008 <LastMemoryBlock>:
 1008008:	00 00                	add    %al,(%eax)
	...

0100800c <next_pid>:
 100800c:	00 00                	add    %al,(%eax)
	...

01008010 <next_selector>:
	...

01008020 <QueueTask>:
	...

01008048 <NextCallTask>:
	...

01009000 <HDD>:
	...

01009ba0 <Elf32_Ehdr>:
 1009ba0:	00 00                	add    %al,(%eax)
	...

01009ba4 <CPU>:
	...

01009bc0 <LDT_Task>:
	...

01009da0 <HddPoint>:
	...

01009dc0 <IDE_Controller>:
	...

01009e40 <buffer_>:
	...

0100a240 <gdt>:
	...

0100a640 <idtr32>:
	...

0100a680 <file_preloader>:
	...

0100a7c0 <StructFat32>:
	...

0100a7c8 <MemorySize>:
	...

0100a7d0 <Elf64_Ehdr>:
	...

0100a800 <TSSTask>:
	...

0100ac38 <Elf32_Shdr>:
	...

0100ac40 <idt>:
	...

0100b440 <SProccess>:
	...

0100ddd0 <Elf32_Phdr>:
 100ddd0:	00 00                	add    %al,(%eax)
	...

0100ddd4 <gdtr32>:
	...

0100dddc <StructFat32Dir>:
 100dddc:	00 00                	add    %al,(%eax)
	...

Disassembly of section .comment:

00000000 <.comment>:
   0:	47                   	inc    %edi
   1:	43                   	inc    %ebx
   2:	43                   	inc    %ebx
   3:	3a 20                	cmp    (%eax),%ah
   5:	28 44 65 62          	sub    %al,0x62(%ebp,%eiz,2)
   9:	69 61 6e 20 34 2e 39 	imul   $0x392e3420,0x6e(%ecx),%esp
  10:	2e 32 2d 31 30 29 20 	xor    %cs:0x20293031,%ch
  17:	34 2e                	xor    $0x2e,%al
  19:	39 2e                	cmp    %ebp,(%esi)
  1b:	32 00                	xor    (%eax),%al
